(dp1
S'OriginalConfig'
p2
ccopy_reg
_reconstructor
p3
(cWMCore.Configuration
Configuration
p4
c__builtin__
object
p5
NtRp6
(dp7
S'Site'
p8
g3
(cWMCore.Configuration
ConfigSection
p9
g5
NtRp10
(dp11
S'_internal_documentation'
p12
S''
sS'_internal_settings'
p13
c__builtin__
set
p14
((lp15
S'storageSite'
p16
atRp17
sS'_internal_name'
p18
g8
sS'_internal_docstrings'
p19
(dp20
sS'_internal_children'
p21
g14
((ltRp22
sg16
S'T2_DE_DESY'
p23
sS'_internal_parent_ref'
p24
NsbsS'_internal_sections'
p25
(lp26
S'User'
p27
aS'General'
p28
aS'JobType'
p29
aS'Data'
p30
ag8
asg28
g3
(g9
g5
NtRp31
(dp32
g12
S''
sg13
g14
((lp33
S'workArea'
p34
aS'requestName'
p35
atRp36
sg18
g28
sg19
(dp37
sg21
g14
((ltRp38
sg35
S'MinBias_TuneCUETP8M1_13TeV-pythia8_PU1p3'
p39
sg24
Nsg34
g39
sbsS'_internal_webapps'
p40
(lp41
sg27
g3
(g9
g5
NtRp42
(dp43
g12
S''
sg13
g14
((lp44
S'voGroup'
p45
atRp46
sg18
g27
sg45
S'dcms'
p47
sg19
(dp48
sg21
g14
((ltRp49
sg24
NsbsS'_internal_components'
p50
(lp51
sg30
g3
(g9
g5
NtRp52
(dp53
S'inputDataset'
p54
S'/MinBias_TuneCUETP8M1_13TeV-pythia8/RunIISpring15DR74-PU1p3RealisticRecodebug_741_p1_mcRun2_Realistic_50ns_v0-v2/GEN-SIM-RECODEBUG'
p55
sS'totalUnits'
p56
I1000
sS'unitsPerJob'
p57
I100
sg12
S''
sg13
g14
((lp58
g54
ag57
aS'splitting'
p59
ag56
atRp60
sg18
g30
sg59
S'EventAwareLumiBased'
p61
sg19
(dp62
sg21
g14
((ltRp63
sg24
Nsbsg29
g3
(g9
g5
NtRp64
(dp65
g12
S''
sg13
g14
((lp66
S'psetName'
p67
aS'pluginName'
p68
atRp69
sg18
g29
sg19
(dp70
sg68
S'Analysis'
p71
sg21
g14
((ltRp72
sg67
S'MinBias_TuneCUETP8M1_13TeV-pythia8_PU1p3.py'
p73
sg24
Nsbsbsg45
g47
sS'Server'
p74
S'cmsweb.cern.ch'
p75
sS'instance'
p76
S'prod'
p77
sS'RequestName'
p78
S'151014_152829:roland_crab_MinBias_TuneCUETP8M1_13TeV-pythia8_PU1p3'
p79
sS'voRole'
p80
S'NULL'
p81
sS'Port'
p82
S''
s.