ccopy_reg
_reconstructor
p0
(cFWCore.ParameterSet.Config
Process
p1
c__builtin__
object
p2
Ntp3
Rp4
(dp5
S'MessageLogger'
p6
g0
(cFWCore.ParameterSet.Modules
Service
p7
g2
Ntp8
Rp9
(dp10
S'_isFrozen'
p11
I00
sS'suppressInfo'
p12
g0
(cFWCore.ParameterSet.Types
vstring
p13
c__builtin__
list
p14
(lp15
tp16
Rp17
(dp18
g11
I00
sS'_ParameterTypeBase__isTracked'
p19
I00
sS'_isModified'
p20
I00
sS'_nPerLine'
p21
I1
sbsS'suppressDebug'
p22
g0
(g13
g14
(lp23
tp24
Rp25
(dp26
g11
I00
sg19
I00
sg20
I00
sg21
I1
sbsS'cout'
p27
g0
(cFWCore.ParameterSet.Types
PSet
p28
g2
Ntp29
Rp30
(dp31
g11
I00
sg19
I00
sS'placeholder'
p32
g0
(cFWCore.ParameterSet.Types
bool
p33
g2
Ntp34
Rp35
(dp36
g11
I00
sg19
I00
sS'_value'
p37
I01
sg20
I00
sbsg20
I00
sS'_Parameterizable__parameterNames'
p38
(lp39
g32
asbsS'_lineNumber'
p40
I10
sS'debugModules'
p41
g0
(g13
g14
(lp42
tp43
Rp44
(dp45
g11
I00
sg19
I00
sg20
I00
sg21
I1
sbsS'_TypedParameterizable__type'
p46
g6
sS'fwkJobReports'
p47
g0
(g13
g14
(lp48
S'FrameworkJobReport'
p49
atp50
Rp51
(dp52
g11
I00
sg19
I00
sg20
I00
sg21
I1
sbsg38
(lp53
g12
aS'debugs'
p54
ag22
ag27
aS'cerr_stats'
p55
aS'warnings'
p56
aS'default'
p57
aS'statistics'
p58
aS'cerr'
p59
ag49
aS'suppressWarning'
p60
aS'errors'
p61
aS'destinations'
p62
ag41
aS'infos'
p63
aS'categories'
p64
ag47
asg58
g0
(g13
g14
(lp65
g55
atp66
Rp67
(dp68
g11
I00
sg19
I00
sg20
I00
sg21
I1
sbsS'_filename'
p69
S'/cvmfs/cms.cern.ch/slc6_amd64_gcc491/cms/cmssw/CMSSW_7_4_2/python/FWCore/ParameterSet/Modules.py'
p70
sg62
g0
(g13
g14
(lp71
g56
ag61
ag63
ag54
ag27
ag59
atp72
Rp73
(dp74
g11
I00
sg19
I00
sg20
I00
sg21
I1
sbsg54
g0
(g28
g2
Ntp75
Rp76
(dp77
g11
I00
sg19
I00
sg32
g0
(g33
g2
Ntp78
Rp79
(dp80
g11
I00
sg19
I00
sg37
I01
sg20
I00
sbsg20
I00
sg38
(lp81
g32
asbsg56
g0
(g28
g2
Ntp82
Rp83
(dp84
g11
I00
sg19
I00
sg32
g0
(g33
g2
Ntp85
Rp86
(dp87
g11
I00
sg19
I00
sg37
I01
sg20
I00
sbsg20
I00
sg38
(lp88
g32
asbsg61
g0
(g28
g2
Ntp89
Rp90
(dp91
g11
I00
sg19
I00
sg32
g0
(g33
g2
Ntp92
Rp93
(dp94
g11
I00
sg19
I00
sg37
I01
sg20
I00
sbsg20
I00
sg38
(lp95
g32
asbsg49
g0
(g28
g2
Ntp96
Rp97
(dp98
g11
I00
sg19
I00
sg20
I00
sg57
g0
(g28
g2
Ntp99
Rp100
(dp101
g11
I00
sg19
I00
sS'limit'
p102
g0
(cFWCore.ParameterSet.Types
int32
p103
g2
Ntp104
Rp105
(dp106
g11
I00
sg19
I00
sg37
I0
sg20
I00
sbsg20
I00
sg38
(lp107
g102
asbsS'FwkJob'
p108
g0
(g28
g2
Ntp109
Rp110
(dp111
g11
I00
sg19
I00
sg20
I00
sg102
g0
(g103
g2
Ntp112
Rp113
(dp114
g11
I00
sg19
I00
sg37
I10000000
sg20
I00
sbsg38
(lp115
S'optionalPSet'
p116
ag102
asg116
g0
(g33
g2
Ntp117
Rp118
(dp119
g11
I00
sg19
I00
sg37
I01
sg20
I00
sbsbsg38
(lp120
g57
ag116
ag108
asg116
g0
(g33
g2
Ntp121
Rp122
(dp123
g11
I00
sg19
I00
sg37
I01
sg20
I00
sbsbsg60
g0
(g13
g14
(lp124
tp125
Rp126
(dp127
g11
I00
sg19
I00
sg20
I00
sg21
I1
sbsg63
g0
(g28
g2
Ntp128
Rp129
(dp130
g11
I00
sg19
I00
sg20
I00
sS'Root_NoDictionary'
p131
g0
(g28
g2
Ntp132
Rp133
(dp134
g11
I00
sg19
I00
sg20
I00
sg102
g0
(g103
g2
Ntp135
Rp136
(dp137
g11
I00
sg19
I00
sg37
I0
sg20
I00
sbsg38
(lp138
g116
ag102
asg116
g0
(g33
g2
Ntp139
Rp140
(dp141
g11
I00
sg19
I00
sg37
I01
sg20
I00
sbsbsg38
(lp142
g116
ag131
ag32
asg116
g0
(g33
g2
Ntp143
Rp144
(dp145
g11
I00
sg19
I00
sg37
I01
sg20
I00
sbsg32
g0
(g33
g2
Ntp146
Rp147
(dp148
g11
I00
sg19
I00
sg37
I01
sg20
I00
sbsbsg64
g0
(g13
g14
(lp149
g108
aS'FwkReport'
p150
aS'FwkSummary'
p151
ag131
atp152
Rp153
(dp154
g11
I00
sg19
I00
sg20
I00
sg21
I1
sbsg20
I00
sg55
g0
(g28
g2
Ntp155
Rp156
(dp157
g11
I00
sg19
I00
sg20
I00
sg116
g0
(g33
g2
Ntp158
Rp159
(dp160
g11
I00
sg19
I00
sg37
I01
sg20
I00
sbsg38
(lp161
S'threshold'
p162
aS'output'
p163
ag116
asg162
g0
(cFWCore.ParameterSet.Types
string
p164
g2
Ntp165
Rp166
(dp167
g11
I00
sg19
I00
sg37
S'WARNING'
p168
sg20
I00
sbsg163
g0
(g164
g2
Ntp169
Rp170
(dp171
g11
I00
sg19
I00
sg37
g59
sg20
I00
sbsbsg57
g0
(g28
g2
Ntp172
Rp173
(dp174
g11
I00
sg19
I00
sg20
I00
sg38
(lp175
sbsg59
g0
(g28
g2
Ntp176
Rp177
(dp178
g11
I00
sg19
I00
sS'noTimeStamps'
p179
g0
(g33
g2
Ntp180
Rp181
(dp182
g11
I00
sg19
I00
sg37
I00
sg20
I00
sbsg150
g0
(g28
g2
Ntp183
Rp184
(dp185
g11
I00
sg19
I00
sg20
I01
sS'reportEvery'
p186
g0
(g103
g2
Ntp187
Rp188
(dp189
g11
I00
sg19
I00
sg37
I1000
sg20
I01
sbsg102
g0
(g103
g2
Ntp190
Rp191
(dp192
g11
I00
sg19
I00
sg37
I10000000
sg20
I00
sbsg38
(lp193
g186
ag116
ag102
asg116
g0
(g33
g2
Ntp194
Rp195
(dp196
g11
I00
sg19
I00
sg37
I01
sg20
I00
sbsbsg20
I00
sg57
g0
(g28
g2
Ntp197
Rp198
(dp199
g11
I00
sg19
I00
sg102
g0
(g103
g2
Ntp200
Rp201
(dp202
g11
I00
sg19
I00
sg37
I10000000
sg20
I00
sbsg20
I00
sg38
(lp203
g102
asbsg131
g0
(g28
g2
Ntp204
Rp205
(dp206
g11
I00
sg19
I00
sg20
I00
sg102
g0
(g103
g2
Ntp207
Rp208
(dp209
g11
I00
sg19
I00
sg37
I0
sg20
I00
sbsg38
(lp210
g116
ag102
asg116
g0
(g33
g2
Ntp211
Rp212
(dp213
g11
I00
sg19
I00
sg37
I01
sg20
I00
sbsbsS'INFO'
p214
g0
(g28
g2
Ntp215
Rp216
(dp217
g11
I00
sg19
I00
sg102
g0
(g103
g2
Ntp218
Rp219
(dp220
g11
I00
sg19
I00
sg37
I0
sg20
I00
sbsg20
I00
sg38
(lp221
g102
asbsg116
g0
(g33
g2
Ntp222
Rp223
(dp224
g11
I00
sg19
I00
sg37
I01
sg20
I00
sbsg108
g0
(g28
g2
Ntp225
Rp226
(dp227
g11
I00
sg19
I00
sg20
I00
sg102
g0
(g103
g2
Ntp228
Rp229
(dp230
g11
I00
sg19
I00
sg37
I0
sg20
I00
sbsg38
(lp231
g116
ag102
asg116
g0
(g33
g2
Ntp232
Rp233
(dp234
g11
I00
sg19
I00
sg37
I01
sg20
I00
sbsbsg151
g0
(g28
g2
Ntp235
Rp236
(dp237
g11
I00
sg19
I00
sg20
I00
sg186
g0
(g103
g2
Ntp238
Rp239
(dp240
g11
I00
sg19
I00
sg37
I1
sg20
I00
sbsg102
g0
(g103
g2
Ntp241
Rp242
(dp243
g11
I00
sg19
I00
sg37
I10000000
sg20
I00
sbsg38
(lp244
g186
ag116
ag102
asg116
g0
(g33
g2
Ntp245
Rp246
(dp247
g11
I00
sg19
I00
sg37
I01
sg20
I00
sbsbsg38
(lp248
g214
ag179
ag150
ag57
ag131
ag162
ag108
ag151
ag116
asg162
g0
(g164
g2
Ntp249
Rp250
(dp251
g11
I00
sg19
I00
sg37
g214
sg20
I00
sbsbsbsS'CaloGeometryBuilder'
p252
g0
(cFWCore.ParameterSet.Modules
ESProducer
p253
g2
Ntp254
Rp255
(dp256
g38
(lp257
S'SelectedCalos'
p258
asg11
I00
sg20
I00
sg40
I40
sg69
S'/cvmfs/cms.cern.ch/slc6_amd64_gcc491/cms/cmssw/CMSSW_7_4_2/python/FWCore/ParameterSet/Modules.py'
p259
sg258
g0
(g13
g14
(lp260
S'HCAL'
p261
aS'ZDC'
p262
aS'CASTOR'
p263
aS'EcalBarrel'
p264
aS'EcalEndcap'
p265
aS'EcalPreshower'
p266
aS'TOWER'
p267
atp268
Rp269
(dp270
g11
I00
sg19
I01
sg20
I00
sg21
I1
sbsS'_Labelable__label'
p271
g252
sg46
g252
sbsS'p'
p272
g0
(cFWCore.ParameterSet.SequenceTypes
Path
p273
g2
Ntp274
Rp275
(dp276
g11
I00
sS'_seq'
p277
g0
(cFWCore.ParameterSet.SequenceTypes
_SequenceCollection
p278
g2
Ntp279
Rp280
(dp281
S'_collection'
p282
(lp283
g0
(cFWCore.ParameterSet.Modules
EDAnalyzer
p284
g2
Ntp285
Rp286
(dp287
g38
(lp288
S'L1TT_requested'
p289
aS'calotower_label'
p290
aS'data_type'
p291
aS'beamspot_label'
p292
aS'HLT_requested'
p293
aS'hfrechit_label'
p294
aS'genparticle_label'
p295
aS'HLT_label'
p296
aS'L1GT_label'
p297
aS'generaltrack_label'
p298
aS'process_label'
p299
aS'recovertex_label'
p300
asg11
I00
sg289
g0
(g13
g14
(lp301
S'L1Tech_BSC_minBias_threshold1.v0'
p302
aS'L1Tech_BSC_minBias_threshold2.v0'
p303
aS'L1Tech_BPTX_plus_AND_minus.v0'
p304
atp305
Rp306
(dp307
g11
I00
sg19
I01
sg20
I00
sg21
I1
sbsg290
g0
(cFWCore.ParameterSet.Types
InputTag
p308
g2
Ntp309
Rp310
(dp311
g11
I00
sg19
I01
sg20
I00
sS'_InputTag__moduleLabel'
p312
S'towerMaker'
p313
sS'_InputTag__processName'
p314
S'RECO'
p315
sS'_InputTag__productInstance'
p316
S''
p317
sbsg69
S'/afs/desy.de/user/r/roland/MinBiasAnalysis/CMSSW_7_4_2/src/TrackAnalysis/TrackTree/Crab-Submission/MinBias_TuneCUETP8M1_13TeV-pythia8_PU1p3.py'
p318
sg300
g0
(g308
g2
Ntp319
Rp320
(dp321
g11
I00
sg19
I01
sg20
I00
sg312
S'offlinePrimaryVertices'
p322
sg314
g315
sg316
g317
sbsg293
g0
(g13
g14
(lp323
S'HLT_ZeroBias_v1'
p324
atp325
Rp326
(dp327
g11
I00
sg19
I01
sg20
I00
sg21
I1
sbsg294
g0
(g308
g2
Ntp328
Rp329
(dp330
g11
I00
sg19
I01
sg20
I00
sg312
S'hfreco'
p331
sg314
g315
sg316
g317
sbsg291
g0
(g164
g2
Ntp332
Rp333
(dp334
g11
I00
sg19
I01
sg37
S'PYTHIA8-CUETP8M1-38T-noPU'
p335
sg20
I00
sbsg271
S'analysis'
p336
sg295
g0
(g308
g2
Ntp337
Rp338
(dp339
g11
I00
sg19
I01
sg20
I00
sg312
S'genParticles'
p340
sg314
S'HLT'
p341
sg316
g317
sbsg40
I46
sg296
g0
(g308
g2
Ntp342
Rp343
(dp344
g11
I00
sg19
I01
sg20
I00
sg312
S'TriggerResults'
p345
sg314
g341
sg316
g317
sbsg299
g0
(g164
g2
Ntp346
Rp347
(dp348
g11
I00
sg19
I01
sg37
g341
sg20
I00
sbsg298
g0
(g308
g2
Ntp349
Rp350
(dp351
g11
I00
sg19
I01
sg20
I00
sg312
S'generalTracks'
p352
sg314
g315
sg316
g317
sbsg297
g0
(g308
g2
Ntp353
Rp354
(dp355
g11
I00
sg19
I01
sg20
I00
sg312
S'gtDigis'
p356
sg314
g317
sg316
g317
sbsg292
g0
(g308
g2
Ntp357
Rp358
(dp359
g11
I00
sg19
I01
sg20
I00
sg312
S'offlineBeamSpot'
p360
sg314
g315
sg316
g317
sbsg46
S'TrackTree'
p361
sg20
I00
sbasbsg20
I00
sg271
g272
sbsS'_Process__sequences'
p362
(dp363
sS'CondDBSetup'
p364
g0
(g28
g2
Ntp365
Rp366
(dp367
g11
I00
sg19
I01
sg20
I00
sS'DBParameters'
p368
g0
(g28
g2
Ntp369
Rp370
(dp371
g11
I00
sg19
I01
sS'connectionRetrialPeriod'
p372
g0
(g103
g2
Ntp373
Rp374
(dp375
g11
I00
sg19
I00
sg37
I10
sg20
I00
sbsS'authenticationPath'
p376
g0
(g164
g2
Ntp377
Rp378
(dp379
g11
I00
sg19
I00
sg37
g317
sg20
I00
sbsg20
I00
sS'idleConnectionCleanupPeriod'
p380
g0
(g103
g2
Ntp381
Rp382
(dp383
g11
I00
sg19
I00
sg37
I10
sg20
I00
sbsS'messageLevel'
p384
g0
(g103
g2
Ntp385
Rp386
(dp387
g11
I00
sg19
I00
sg37
I0
sg20
I00
sbsS'enablePoolAutomaticCleanUp'
p388
g0
(g33
g2
Ntp389
Rp390
(dp391
g11
I00
sg19
I00
sg37
I00
sg20
I00
sbsS'enableConnectionSharing'
p392
g0
(g33
g2
Ntp393
Rp394
(dp395
g11
I00
sg19
I00
sg37
I01
sg20
I00
sbsS'enableReadOnlySessionOnUpdateConnection'
p396
g0
(g33
g2
Ntp397
Rp398
(dp399
g11
I00
sg19
I00
sg37
I00
sg20
I00
sbsg38
(lp400
g376
ag396
ag380
ag384
ag388
ag392
aS'connectionRetrialTimeOut'
p401
aS'connectionTimeOut'
p402
aS'authenticationSystem'
p403
ag372
asg402
g0
(g103
g2
Ntp404
Rp405
(dp406
g11
I00
sg19
I00
sg37
I60
sg20
I00
sbsg403
g0
(g103
g2
Ntp407
Rp408
(dp409
g11
I00
sg19
I00
sg37
I0
sg20
I00
sbsg401
g0
(g103
g2
Ntp410
Rp411
(dp412
g11
I00
sg19
I00
sg37
I60
sg20
I00
sbsbsg38
(lp413
g368
asg271
g364
sbsS'trackerNumberingGeometry'
p414
g0
(g253
g2
Ntp415
Rp416
(dp417
g38
(lp418
S'appendToDataLabel'
p419
aS'fromDDD'
p420
asg11
I00
sg419
g0
(g164
g2
Ntp421
Rp422
(dp423
g11
I00
sg19
I01
sg37
g317
sg20
I00
sbsg20
I00
sg40
I40
sg69
g259
sg271
g414
sg420
g0
(g33
g2
Ntp424
Rp425
(dp426
g11
I00
sg19
I01
sg37
I01
sg20
I00
sbsg46
S'TrackerGeometricDetESModule'
p427
sbsS'_Process__services'
p428
(dp429
g6
g9
sS'DQMStore'
p430
g0
(g7
g2
Ntp431
Rp432
(dp433
g38
(lp434
S'referenceFileName'
p435
aS'verbose'
p436
aS'collateHistograms'
p437
aS'enableMultiThread'
p438
aS'forceResetOnBeginLumi'
p439
aS'LSbasedMode'
p440
aS'verboseQT'
p441
asg11
I00
sg436
g0
(g103
g2
Ntp442
Rp443
(dp444
g11
I00
sg19
I00
sg37
I0
sg20
I00
sbsg437
g0
(g33
g2
Ntp445
Rp446
(dp447
g11
I00
sg19
I00
sg37
I00
sg20
I00
sbsg435
g0
(g164
g2
Ntp448
Rp449
(dp450
g11
I00
sg19
I00
sg37
g317
sg20
I00
sbsg438
g0
(g33
g2
Ntp451
Rp452
(dp453
g11
I00
sg19
I00
sg37
I00
sg20
I00
sbsg439
g0
(g33
g2
Ntp454
Rp455
(dp456
g11
I00
sg19
I00
sg37
I00
sg20
I00
sbsg40
I10
sg440
g0
(g33
g2
Ntp457
Rp458
(dp459
g11
I00
sg19
I00
sg37
I00
sg20
I00
sbsg69
g70
sg441
g0
(g103
g2
Ntp460
Rp461
(dp462
g11
I00
sg19
I00
sg37
I0
sg20
I00
sbsg46
g430
sg20
I00
sbsS'RandomNumberGeneratorService'
p463
g0
(g7
g2
Ntp464
Rp465
(dp466
g11
I00
sS'horeco'
p467
g0
(g28
g2
Ntp468
Rp469
(dp470
g11
I00
sg19
I01
sg20
I00
sS'initialSeed'
p471
g0
(cFWCore.ParameterSet.Types
uint32
p472
g2
Ntp473
Rp474
(dp475
g11
I00
sg19
I00
sg37
I541321
sg20
I00
sbsg38
(lp476
g471
aS'engineName'
p477
asg477
g0
(g164
g2
Ntp478
Rp479
(dp480
g11
I00
sg19
I00
sg37
S'TRandom3'
p481
sg20
I00
sbsbsg40
I10
sS'paramMuons'
p482
g0
(g28
g2
Ntp483
Rp484
(dp485
g11
I00
sg19
I01
sg20
I00
sg471
g0
(g472
g2
Ntp486
Rp487
(dp488
g11
I00
sg19
I00
sg37
I54525
sg20
I00
sbsg38
(lp489
g471
ag477
asg477
g0
(g164
g2
Ntp490
Rp491
(dp492
g11
I00
sg19
I00
sg37
g481
sg20
I00
sbsbsS'saveFileName'
p493
g0
(g164
g2
Ntp494
Rp495
(dp496
g11
I00
sg19
I00
sg37
g317
sg20
I00
sbsS'hbhereco'
p497
g0
(g28
g2
Ntp498
Rp499
(dp500
g11
I00
sg19
I01
sg20
I00
sg471
g0
(g472
g2
Ntp501
Rp502
(dp503
g11
I00
sg19
I00
sg37
I541321
sg20
I00
sbsg38
(lp504
g471
ag477
asg477
g0
(g164
g2
Ntp505
Rp506
(dp507
g11
I00
sg19
I00
sg37
g481
sg20
I00
sbsbsS'simSiStripDigiSimLink'
p508
g0
(g28
g2
Ntp509
Rp510
(dp511
g11
I00
sg19
I01
sg20
I00
sg471
g0
(g472
g2
Ntp512
Rp513
(dp514
g11
I00
sg19
I00
sg37
I1234567
sg20
I00
sbsg38
(lp515
g471
ag477
asg477
g0
(g164
g2
Ntp516
Rp517
(dp518
g11
I00
sg19
I00
sg37
S'HepJamesRandom'
p519
sg20
I00
sbsbsS'externalLHEProducer'
p520
g0
(g28
g2
Ntp521
Rp522
(dp523
g11
I00
sg19
I01
sg20
I00
sg471
g0
(g472
g2
Ntp524
Rp525
(dp526
g11
I00
sg19
I00
sg37
I234567
sg20
I00
sbsg38
(lp527
g471
ag477
asg477
g0
(g164
g2
Ntp528
Rp529
(dp530
g11
I00
sg19
I00
sg37
g519
sg20
I00
sbsbsS'famosPileUp'
p531
g0
(g28
g2
Ntp532
Rp533
(dp534
g11
I00
sg19
I01
sg20
I00
sg471
g0
(g472
g2
Ntp535
Rp536
(dp537
g11
I00
sg19
I00
sg37
I918273
sg20
I00
sbsg38
(lp538
g471
ag477
asg477
g0
(g164
g2
Ntp539
Rp540
(dp541
g11
I00
sg19
I00
sg37
g481
sg20
I00
sbsbsS'simMuonDTDigis'
p542
g0
(g28
g2
Ntp543
Rp544
(dp545
g11
I00
sg19
I01
sg20
I00
sg471
g0
(g472
g2
Ntp546
Rp547
(dp548
g11
I00
sg19
I00
sg37
I1234567
sg20
I00
sbsg38
(lp549
g471
ag477
asg477
g0
(g164
g2
Ntp550
Rp551
(dp552
g11
I00
sg19
I00
sg37
g519
sg20
I00
sbsbsg46
g463
sS'siTrackerGaussianSmearingRecHits'
p553
g0
(g28
g2
Ntp554
Rp555
(dp556
g11
I00
sg19
I01
sg20
I00
sg471
g0
(g472
g2
Ntp557
Rp558
(dp559
g11
I00
sg19
I00
sg37
I24680
sg20
I00
sbsg38
(lp560
g471
ag477
asg477
g0
(g164
g2
Ntp561
Rp562
(dp563
g11
I00
sg19
I00
sg37
g481
sg20
I00
sbsbsg38
(lp564
g467
ag482
ag493
ag497
ag508
ag520
ag531
ag542
ag553
aS'ecalPreshowerRecHit'
p565
aS'generator'
p566
aS'simMuonRPCDigis'
p567
aS'hiSignal'
p568
aS'mixSimCaloHits'
p569
aS'mix'
p570
aS'VtxSmeared'
p571
aS'LHCTransport'
p572
aS'ecalRecHit'
p573
ag331
aS'mixRecoTracks'
p574
aS'hiSignalG4SimHits'
p575
aS'famosSimHits'
p576
aS'MuonSimHits'
p577
aS'g4SimHits'
p578
aS'hiSignalLHCTransport'
p579
aS'mixGenPU'
p580
aS'l1ParamMuons'
p581
aS'simBeamSpotFilter'
p582
aS'simMuonCSCDigis'
p583
aS'mixData'
p584
asg565
g0
(g28
g2
Ntp585
Rp586
(dp587
g11
I00
sg19
I01
sg20
I00
sg471
g0
(g472
g2
Ntp588
Rp589
(dp590
g11
I00
sg19
I00
sg37
I6541321
sg20
I00
sbsg38
(lp591
g471
ag477
asg477
g0
(g164
g2
Ntp592
Rp593
(dp594
g11
I00
sg19
I00
sg37
g481
sg20
I00
sbsbsg566
g0
(g28
g2
Ntp595
Rp596
(dp597
g11
I00
sg19
I01
sg20
I00
sg471
g0
(g472
g2
Ntp598
Rp599
(dp600
g11
I00
sg19
I00
sg37
I123456789
sg20
I00
sbsg38
(lp601
g471
ag477
asg477
g0
(g164
g2
Ntp602
Rp603
(dp604
g11
I00
sg19
I00
sg37
g519
sg20
I00
sbsbsg567
g0
(g28
g2
Ntp605
Rp606
(dp607
g11
I00
sg19
I01
sg20
I00
sg471
g0
(g472
g2
Ntp608
Rp609
(dp610
g11
I00
sg19
I00
sg37
I1234567
sg20
I00
sbsg38
(lp611
g471
ag477
asg477
g0
(g164
g2
Ntp612
Rp613
(dp614
g11
I00
sg19
I00
sg37
g519
sg20
I00
sbsbsg568
g0
(g28
g2
Ntp615
Rp616
(dp617
g11
I00
sg19
I01
sg20
I00
sg471
g0
(g472
g2
Ntp618
Rp619
(dp620
g11
I00
sg19
I00
sg37
I123456789
sg20
I00
sbsg38
(lp621
g471
ag477
asg477
g0
(g164
g2
Ntp622
Rp623
(dp624
g11
I00
sg19
I00
sg37
g519
sg20
I00
sbsbsg569
g0
(g28
g2
Ntp625
Rp626
(dp627
g11
I00
sg19
I01
sg20
I00
sg471
g0
(g472
g2
Ntp628
Rp629
(dp630
g11
I00
sg19
I00
sg37
I918273
sg20
I00
sbsg38
(lp631
g471
ag477
asg477
g0
(g164
g2
Ntp632
Rp633
(dp634
g11
I00
sg19
I00
sg37
g481
sg20
I00
sbsbsg570
g0
(g28
g2
Ntp635
Rp636
(dp637
g11
I00
sg19
I01
sg20
I00
sg471
g0
(g472
g2
Ntp638
Rp639
(dp640
g11
I00
sg19
I00
sg37
I12345
sg20
I00
sbsg38
(lp641
g471
ag477
asg477
g0
(g164
g2
Ntp642
Rp643
(dp644
g11
I00
sg19
I00
sg37
g519
sg20
I00
sbsbsg571
g0
(g28
g2
Ntp645
Rp646
(dp647
g11
I00
sg19
I01
sg20
I00
sg471
g0
(g472
g2
Ntp648
Rp649
(dp650
g11
I00
sg19
I00
sg37
I98765432
sg20
I00
sbsg38
(lp651
g471
ag477
asg477
g0
(g164
g2
Ntp652
Rp653
(dp654
g11
I00
sg19
I00
sg37
g519
sg20
I00
sbsbsg572
g0
(g28
g2
Ntp655
Rp656
(dp657
g11
I00
sg19
I01
sg20
I00
sg471
g0
(g472
g2
Ntp658
Rp659
(dp660
g11
I00
sg19
I00
sg37
I87654321
sg20
I00
sbsg38
(lp661
g471
ag477
asg477
g0
(g164
g2
Ntp662
Rp663
(dp664
g11
I00
sg19
I00
sg37
g481
sg20
I00
sbsbsg573
g0
(g28
g2
Ntp665
Rp666
(dp667
g11
I00
sg19
I01
sg20
I00
sg471
g0
(g472
g2
Ntp668
Rp669
(dp670
g11
I00
sg19
I00
sg37
I654321
sg20
I00
sbsg38
(lp671
g471
ag477
asg477
g0
(g164
g2
Ntp672
Rp673
(dp674
g11
I00
sg19
I00
sg37
g481
sg20
I00
sbsbsg584
g0
(g28
g2
Ntp675
Rp676
(dp677
g11
I00
sg19
I01
sg20
I00
sg471
g0
(g472
g2
Ntp678
Rp679
(dp680
g11
I00
sg19
I00
sg37
I12345
sg20
I00
sbsg38
(lp681
g471
ag477
asg477
g0
(g164
g2
Ntp682
Rp683
(dp684
g11
I00
sg19
I00
sg37
g519
sg20
I00
sbsbsg574
g0
(g28
g2
Ntp685
Rp686
(dp687
g11
I00
sg19
I01
sg20
I00
sg471
g0
(g472
g2
Ntp688
Rp689
(dp690
g11
I00
sg19
I00
sg37
I918273
sg20
I00
sbsg38
(lp691
g471
ag477
asg477
g0
(g164
g2
Ntp692
Rp693
(dp694
g11
I00
sg19
I00
sg37
g481
sg20
I00
sbsbsg575
g0
(g28
g2
Ntp695
Rp696
(dp697
g11
I00
sg19
I01
sg20
I00
sg471
g0
(g472
g2
Ntp698
Rp699
(dp700
g11
I00
sg19
I00
sg37
I11
sg20
I00
sbsg38
(lp701
g471
ag477
asg477
g0
(g164
g2
Ntp702
Rp703
(dp704
g11
I00
sg19
I00
sg37
g519
sg20
I00
sbsbsg576
g0
(g28
g2
Ntp705
Rp706
(dp707
g11
I00
sg19
I01
sg20
I00
sg471
g0
(g472
g2
Ntp708
Rp709
(dp710
g11
I00
sg19
I00
sg37
I13579
sg20
I00
sbsg38
(lp711
g471
ag477
asg477
g0
(g164
g2
Ntp712
Rp713
(dp714
g11
I00
sg19
I00
sg37
g481
sg20
I00
sbsbsg577
g0
(g28
g2
Ntp715
Rp716
(dp717
g11
I00
sg19
I01
sg20
I00
sg471
g0
(g472
g2
Ntp718
Rp719
(dp720
g11
I00
sg19
I00
sg37
I987346
sg20
I00
sbsg38
(lp721
g471
ag477
asg477
g0
(g164
g2
Ntp722
Rp723
(dp724
g11
I00
sg19
I00
sg37
g481
sg20
I00
sbsbsg578
g0
(g28
g2
Ntp725
Rp726
(dp727
g11
I00
sg19
I01
sg20
I00
sg471
g0
(g472
g2
Ntp728
Rp729
(dp730
g11
I00
sg19
I00
sg37
I11
sg20
I00
sbsg38
(lp731
g471
ag477
asg477
g0
(g164
g2
Ntp732
Rp733
(dp734
g11
I00
sg19
I00
sg37
g519
sg20
I00
sbsbsg579
g0
(g28
g2
Ntp735
Rp736
(dp737
g11
I00
sg19
I01
sg20
I00
sg471
g0
(g472
g2
Ntp738
Rp739
(dp740
g11
I00
sg19
I00
sg37
I88776655
sg20
I00
sbsg38
(lp741
g471
ag477
asg477
g0
(g164
g2
Ntp742
Rp743
(dp744
g11
I00
sg19
I00
sg37
g481
sg20
I00
sbsbsg580
g0
(g28
g2
Ntp745
Rp746
(dp747
g11
I00
sg19
I01
sg20
I00
sg471
g0
(g472
g2
Ntp748
Rp749
(dp750
g11
I00
sg19
I00
sg37
I918273
sg20
I00
sbsg38
(lp751
g471
ag477
asg477
g0
(g164
g2
Ntp752
Rp753
(dp754
g11
I00
sg19
I00
sg37
g481
sg20
I00
sbsbsg581
g0
(g28
g2
Ntp755
Rp756
(dp757
g11
I00
sg19
I01
sg20
I00
sg471
g0
(g472
g2
Ntp758
Rp759
(dp760
g11
I00
sg19
I00
sg37
I6453209
sg20
I00
sbsg38
(lp761
g471
ag477
asg477
g0
(g164
g2
Ntp762
Rp763
(dp764
g11
I00
sg19
I00
sg37
g481
sg20
I00
sbsbsg20
I00
sg582
g0
(g28
g2
Ntp765
Rp766
(dp767
g11
I00
sg19
I01
sg20
I00
sg471
g0
(g472
g2
Ntp768
Rp769
(dp770
g11
I00
sg19
I00
sg37
I87654321
sg20
I00
sbsg38
(lp771
g471
ag477
asg477
g0
(g164
g2
Ntp772
Rp773
(dp774
g11
I00
sg19
I00
sg37
g519
sg20
I00
sbsbsg583
g0
(g28
g2
Ntp775
Rp776
(dp777
g11
I00
sg19
I01
sg20
I00
sg471
g0
(g472
g2
Ntp778
Rp779
(dp780
g11
I00
sg19
I00
sg37
I11223344
sg20
I00
sbsg38
(lp781
g471
ag477
asg477
g0
(g164
g2
Ntp782
Rp783
(dp784
g11
I00
sg19
I00
sg37
g519
sg20
I00
sbsbsg331
g0
(g28
g2
Ntp785
Rp786
(dp787
g11
I00
sg19
I01
sg20
I00
sg471
g0
(g472
g2
Ntp788
Rp789
(dp790
g11
I00
sg19
I00
sg37
I541321
sg20
I00
sbsg38
(lp791
g471
ag477
asg477
g0
(g164
g2
Ntp792
Rp793
(dp794
g11
I00
sg19
I00
sg37
g481
sg20
I00
sbsbsg69
g70
sbsS'TFileService'
p795
g0
(g7
g2
Ntp796
Rp797
(dp798
g38
(lp799
S'fileName'
p800
asg11
I00
sg20
I00
sg40
I10
sg69
g70
sg800
g0
(g164
g2
Ntp801
Rp802
(dp803
g11
I00
sg19
I01
sg37
S'/nfs/dust/cms/user/roland/TrackAnalysis/OutputTree/PYTHIA8-CUETP8M1-38T/PYTHIA8-CUETP8M1-38T-noPU.root'
p804
sg20
I00
sbsg46
g795
sbssS'siStripQualityESProducer'
p805
g0
(g253
g2
Ntp806
Rp807
(dp808
g38
(lp809
g419
aS'PrintDebugOutput'
p810
aS'ThresholdForReducedGranularity'
p811
aS'UseEmptyRunInfo'
p812
aS'ReduceGranularity'
p813
aS'ListOfRecordToMerge'
p814
asg11
I00
sg419
g0
(g164
g2
Ntp815
Rp816
(dp817
g11
I00
sg19
I01
sg37
g317
sg20
I00
sbsg20
I01
sg40
I40
sg69
g259
sg811
g0
(cFWCore.ParameterSet.Types
double
p818
g2
Ntp819
Rp820
(dp821
g11
I00
sg19
I01
sg37
F0.29999999999999999
sg20
I00
sbsg271
g805
sg812
g0
(g33
g2
Ntp822
Rp823
(dp824
g11
I00
sg19
I01
sg37
I00
sg20
I00
sbsg813
g0
(g33
g2
Ntp825
Rp826
(dp827
g11
I00
sg19
I01
sg37
I00
sg20
I00
sbsg814
g0
(cFWCore.ParameterSet.Types
VPSet
p828
g14
(lp829
g0
(g28
g2
Ntp830
Rp831
(dp832
g11
I00
sg19
I01
sg20
I00
sS'record'
p833
g0
(g164
g2
Ntp834
Rp835
(dp836
g11
I00
sg19
I01
sg37
S'SiStripDetVOffRcd'
p837
sg20
I00
sbsS'tag'
p838
g0
(g164
g2
Ntp839
Rp840
(dp841
g11
I00
sg19
I01
sg37
g317
sg20
I00
sbsg38
(lp842
g833
ag838
asbag0
(g28
g2
Ntp843
Rp844
(dp845
g11
I00
sg19
I01
sg20
I00
sg833
g0
(g164
g2
Ntp846
Rp847
(dp848
g11
I00
sg19
I01
sg37
S'SiStripDetCablingRcd'
p849
sg20
I00
sbsg838
g0
(g164
g2
Ntp850
Rp851
(dp852
g11
I00
sg19
I01
sg37
g317
sg20
I00
sbsg38
(lp853
g833
ag838
asbag0
(g28
g2
Ntp854
Rp855
(dp856
g11
I00
sg19
I01
sg20
I00
sg833
g0
(g164
g2
Ntp857
Rp858
(dp859
g11
I00
sg19
I01
sg37
S'RunInfoRcd'
p860
sg20
I00
sbsg838
g0
(g164
g2
Ntp861
Rp862
(dp863
g11
I00
sg19
I01
sg37
g317
sg20
I00
sbsg38
(lp864
g833
ag838
asbag0
(g28
g2
Ntp865
Rp866
(dp867
g11
I00
sg19
I01
sg20
I00
sg833
g0
(g164
g2
Ntp868
Rp869
(dp870
g11
I00
sg19
I01
sg37
S'SiStripBadChannelRcd'
p871
sg20
I00
sbsg838
g0
(g164
g2
Ntp872
Rp873
(dp874
g11
I00
sg19
I01
sg37
g317
sg20
I00
sbsg38
(lp875
g833
ag838
asbag0
(g28
g2
Ntp876
Rp877
(dp878
g11
I00
sg19
I01
sg20
I00
sg833
g0
(g164
g2
Ntp879
Rp880
(dp881
g11
I00
sg19
I01
sg37
S'SiStripBadFiberRcd'
p882
sg20
I00
sbsg838
g0
(g164
g2
Ntp883
Rp884
(dp885
g11
I00
sg19
I01
sg37
g317
sg20
I00
sbsg38
(lp886
g833
ag838
asbag0
(g28
g2
Ntp887
Rp888
(dp889
g11
I00
sg19
I01
sg20
I00
sg833
g0
(g164
g2
Ntp890
Rp891
(dp892
g11
I00
sg19
I01
sg37
S'SiStripBadModuleRcd'
p893
sg20
I00
sbsg838
g0
(g164
g2
Ntp894
Rp895
(dp896
g11
I00
sg19
I01
sg37
g317
sg20
I00
sbsg38
(lp897
g833
ag838
asbag0
(g28
g2
Ntp898
Rp899
(dp900
g11
I00
sg19
I01
sg20
I00
sg833
g0
(g164
g2
Ntp901
Rp902
(dp903
g11
I00
sg19
I01
sg37
S'SiStripBadStripRcd'
p904
sg20
I00
sbsg838
g0
(g164
g2
Ntp905
Rp906
(dp907
g11
I00
sg19
I01
sg37
g317
sg20
I00
sbsg38
(lp908
g833
ag838
asbatp909
Rp910
(dp911
g11
I00
sg19
I01
sg20
I00
sg21
I1
sbsg46
S'SiStripQualityESProducer'
p912
sg810
g0
(g33
g2
Ntp913
Rp914
(dp915
g11
I00
sg19
I01
sg37
I00
sg20
I00
sbsbsS'CSCGeometryESModule'
p916
g0
(g253
g2
Ntp917
Rp918
(dp919
g38
(lp920
g419
aS'useDDD'
p921
aS'debugV'
p922
aS'useGangedStripsInME1a'
p923
aS'alignmentsLabel'
p924
aS'useOnlyWiresInME1a'
p925
aS'useRealWireGeometry'
p926
aS'useCentreTIOffsets'
p927
aS'applyAlignment'
p928
asg11
I00
sg419
g0
(g164
g2
Ntp929
Rp930
(dp931
g11
I00
sg19
I01
sg37
g317
sg20
I00
sbsg20
I00
sg922
g0
(g33
g2
Ntp932
Rp933
(dp934
g11
I00
sg19
I00
sg37
I00
sg20
I00
sbsg69
g259
sg923
g0
(g33
g2
Ntp935
Rp936
(dp937
g11
I00
sg19
I01
sg37
I01
sg20
I00
sbsg924
g0
(g164
g2
Ntp938
Rp939
(dp940
g11
I00
sg19
I01
sg37
g317
sg20
I00
sbsg925
g0
(g33
g2
Ntp941
Rp942
(dp943
g11
I00
sg19
I01
sg37
I00
sg20
I00
sbsg921
g0
(g33
g2
Ntp944
Rp945
(dp946
g11
I00
sg19
I01
sg37
I01
sg20
I00
sbsg40
I40
sg927
g0
(g33
g2
Ntp947
Rp948
(dp949
g11
I00
sg19
I01
sg37
I00
sg20
I00
sbsg271
g916
sg926
g0
(g33
g2
Ntp950
Rp951
(dp952
g11
I00
sg19
I01
sg37
I01
sg20
I00
sbsg928
g0
(g33
g2
Ntp953
Rp954
(dp955
g11
I00
sg19
I01
sg37
I01
sg20
I00
sbsg46
g916
sbsg430
g432
sS'CaloTowerHardcodeGeometryEP'
p956
g0
(g253
g2
Ntp957
Rp958
(dp959
g38
(lp960
sg11
I00
sg20
I00
sg40
I40
sg69
g259
sg271
g956
sg46
g956
sbsS'_Process__source'
p961
g0
(cFWCore.ParameterSet.Modules
Source
p962
g2
Ntp963
Rp964
(dp965
g38
(lp966
S'fileNames'
p967
asg11
I00
sg20
I00
sg40
I175
sg69
S'/cvmfs/cms.cern.ch/slc6_amd64_gcc491/cms/cmssw/CMSSW_7_4_2/python/FWCore/ParameterSet/Modules.py'
p968
sg967
g0
(g13
g14
(lp969
S'file:/nfs/dust/cms/user/roland/MinBias-2015-MonteCarlo-38T/MinBias_TuneCUETP8M1_13TeV_pythia8/MinBias_TuneCUETP8M1_13TeV_pythia8_1.root'
p970
aS'file:/nfs/dust/cms/user/roland/MinBias-2015-MonteCarlo-38T/MinBias_TuneCUETP8M1_13TeV_pythia8/MinBias_TuneCUETP8M1_13TeV_pythia8_2.root'
p971
aS'file:/nfs/dust/cms/user/roland/MinBias-2015-MonteCarlo-38T/MinBias_TuneCUETP8M1_13TeV_pythia8/MinBias_TuneCUETP8M1_13TeV_pythia8_3.root'
p972
aS'file:/nfs/dust/cms/user/roland/MinBias-2015-MonteCarlo-38T/MinBias_TuneCUETP8M1_13TeV_pythia8/MinBias_TuneCUETP8M1_13TeV_pythia8_4.root'
p973
aS'file:/nfs/dust/cms/user/roland/MinBias-2015-MonteCarlo-38T/MinBias_TuneCUETP8M1_13TeV_pythia8/MinBias_TuneCUETP8M1_13TeV_pythia8_5.root'
p974
aS'file:/nfs/dust/cms/user/roland/MinBias-2015-MonteCarlo-38T/MinBias_TuneCUETP8M1_13TeV_pythia8/MinBias_TuneCUETP8M1_13TeV_pythia8_6.root'
p975
aS'file:/nfs/dust/cms/user/roland/MinBias-2015-MonteCarlo-38T/MinBias_TuneCUETP8M1_13TeV_pythia8/MinBias_TuneCUETP8M1_13TeV_pythia8_7.root'
p976
aS'file:/nfs/dust/cms/user/roland/MinBias-2015-MonteCarlo-38T/MinBias_TuneCUETP8M1_13TeV_pythia8/MinBias_TuneCUETP8M1_13TeV_pythia8_8.root'
p977
atp978
Rp979
(dp980
g11
I00
sg19
I00
sg20
I00
sg21
I1
sbsg46
S'PoolSource'
p981
sbsS'StripCPEfromTrackAngleESProducer'
p982
g0
(g253
g2
Ntp983
Rp984
(dp985
g38
(lp986
S'ComponentType'
p987
aS'ComponentName'
p988
aS'parameters'
p989
asg11
I00
sg20
I01
sg989
g0
(g28
g2
Ntp990
Rp991
(dp992
g11
I00
sg19
I01
sS'maxChgOneMIP'
p993
g0
(g818
g2
Ntp994
Rp995
(dp996
g11
I00
sg19
I01
sg37
F6000.0
sg20
I00
sbsS'mLC_P2'
p997
g0
(g818
g2
Ntp998
Rp999
(dp1000
g11
I00
sg19
I01
sg37
F0.29999999999999999
sg20
I00
sbsS'mLC_P1'
p1001
g0
(g818
g2
Ntp1002
Rp1003
(dp1004
g11
I00
sg19
I01
sg37
F0.61799999999999999
sg20
I00
sbsS'mLC_P0'
p1005
g0
(g818
g2
Ntp1006
Rp1007
(dp1008
g11
I00
sg19
I01
sg37
F-0.32600000000000001
sg20
I00
sbsS'useLegacyError'
p1009
g0
(g33
g2
Ntp1010
Rp1011
(dp1012
g11
I00
sg19
I01
sg37
I00
sg20
I00
sbsS'mTIB_P1'
p1013
g0
(g818
g2
Ntp1014
Rp1015
(dp1016
g11
I00
sg19
I01
sg37
F0.20200000000000001
sg20
I00
sbsS'mTEC_P1'
p1017
g0
(g818
g2
Ntp1018
Rp1019
(dp1020
g11
I00
sg19
I01
sg37
F0.47099999999999997
sg20
I00
sbsS'mTEC_P0'
p1021
g0
(g818
g2
Ntp1022
Rp1023
(dp1024
g11
I00
sg19
I01
sg37
F-1.885
sg20
I00
sbsS'mTOB_P0'
p1025
g0
(g818
g2
Ntp1026
Rp1027
(dp1028
g11
I00
sg19
I01
sg37
F-1.026
sg20
I00
sbsS'mTOB_P1'
p1029
g0
(g818
g2
Ntp1030
Rp1031
(dp1032
g11
I00
sg19
I01
sg37
F0.253
sg20
I00
sbsS'mTIB_P0'
p1033
g0
(g818
g2
Ntp1034
Rp1035
(dp1036
g11
I00
sg19
I01
sg37
F-0.74199999999999999
sg20
I00
sbsg38
(lp1037
g993
ag997
ag1001
ag1005
ag1009
ag1017
ag1021
ag1025
ag1029
ag1033
ag1013
aS'mTID_P0'
p1038
aS'mTID_P1'
p1039
asg1038
g0
(g818
g2
Ntp1040
Rp1041
(dp1042
g11
I00
sg19
I01
sg37
F-1.427
sg20
I00
sbsg1039
g0
(g818
g2
Ntp1043
Rp1044
(dp1045
g11
I00
sg19
I01
sg37
F0.433
sg20
I00
sbsg20
I00
sbsg40
I4
sg988
g0
(g164
g2
Ntp1046
Rp1047
(dp1048
g11
I00
sg19
I01
sg37
S'StripCPEfromTrackAngle'
p1049
sg20
I00
sbsg987
g0
(g164
g2
Ntp1050
Rp1051
(dp1052
g11
I00
sg19
I01
sg37
g1049
sg20
I00
sbsg69
S'/cvmfs/cms.cern.ch/slc6_amd64_gcc491/cms/cmssw/CMSSW_7_4_2/python/RecoLocalTracker/SiStripRecHitConverter/StripCPEfromTrackAngle_cfi.py'
p1053
sg271
g982
sg46
S'StripCPEESProducer'
p1054
sbsS'_Process__aliases'
p1055
(dp1056
sS'eegeom'
p1057
g0
(cFWCore.ParameterSet.Modules
ESSource
p1058
g2
Ntp1059
Rp1060
(dp1061
g38
(lp1062
S'iovIsRunNotTime'
p1063
aS'recordName'
p1064
aS'firstValid'
p1065
asg11
I00
sg20
I00
sg40
I6
sg1064
g0
(g164
g2
Ntp1066
Rp1067
(dp1068
g11
I00
sg19
I01
sg37
S'EcalMappingRcd'
p1069
sg20
I00
sbsg69
S'/cvmfs/cms.cern.ch/slc6_amd64_gcc491/cms/cmssw/CMSSW_7_4_2/python/Geometry/EcalMapping/EcalMappingRecord_cfi.py'
p1070
sg1065
g0
(cFWCore.ParameterSet.Types
vuint32
p1071
g14
(lp1072
I1
atp1073
Rp1074
(dp1075
g11
I00
sg19
I01
sg20
I00
sbsg271
g1057
sg1063
g0
(g33
g2
Ntp1076
Rp1077
(dp1078
g11
I00
sg19
I01
sg37
I01
sg20
I00
sbsg46
S'EmptyESSource'
p1079
sbsS'CaloTopologyBuilder'
p1080
g0
(g253
g2
Ntp1081
Rp1082
(dp1083
g38
(lp1084
sg11
I00
sg20
I00
sg40
I40
sg69
g259
sg271
g1080
sg46
g1080
sbsS'trackerGeometry'
p1085
g0
(g253
g2
Ntp1086
Rp1087
(dp1088
g38
(lp1089
g419
ag420
aS'trackerGeometryConstants'
p1090
ag928
ag924
asg11
I00
sg419
g0
(g164
g2
Ntp1091
Rp1092
(dp1093
g11
I00
sg19
I01
sg37
g317
sg20
I00
sbsg1090
g0
(g28
g2
Ntp1094
Rp1095
(dp1096
g11
I00
sg19
I01
sS'ROCS_X'
p1097
g0
(g103
g2
Ntp1098
Rp1099
(dp1100
g11
I00
sg19
I01
sg37
I0
sg20
I00
sbsS'ROCS_Y'
p1101
g0
(g103
g2
Ntp1102
Rp1103
(dp1104
g11
I00
sg19
I01
sg37
I0
sg20
I00
sbsS'upgradeGeometry'
p1105
g0
(g33
g2
Ntp1106
Rp1107
(dp1108
g11
I00
sg19
I01
sg37
I00
sg20
I00
sbsS'BIG_PIX_PER_ROC_Y'
p1109
g0
(g103
g2
Ntp1110
Rp1111
(dp1112
g11
I00
sg19
I01
sg37
I2
sg20
I00
sbsS'BIG_PIX_PER_ROC_X'
p1113
g0
(g103
g2
Ntp1114
Rp1115
(dp1116
g11
I00
sg19
I01
sg37
I1
sg20
I00
sbsS'ROWS_PER_ROC'
p1117
g0
(g103
g2
Ntp1118
Rp1119
(dp1120
g11
I00
sg19
I01
sg37
I80
sg20
I00
sbsg38
(lp1121
g1097
ag1101
ag1105
ag1109
ag1113
ag1117
aS'COLS_PER_ROC'
p1122
asg1122
g0
(g103
g2
Ntp1123
Rp1124
(dp1125
g11
I00
sg19
I01
sg37
I52
sg20
I00
sbsg20
I00
sbsg20
I00
sg924
g0
(g164
g2
Ntp1126
Rp1127
(dp1128
g11
I00
sg19
I01
sg37
g317
sg20
I00
sbsg69
g259
sg40
I40
sg271
g1085
sg420
g0
(g33
g2
Ntp1129
Rp1130
(dp1131
g11
I00
sg19
I01
sg37
I01
sg20
I00
sbsg928
g0
(g33
g2
Ntp1132
Rp1133
(dp1134
g11
I00
sg19
I01
sg37
I01
sg20
I00
sbsg46
S'TrackerDigiGeometryESModule'
p1135
sbsS'GlobalTrackingGeometryESProducer'
p1136
g0
(g253
g2
Ntp1137
Rp1138
(dp1139
g38
(lp1140
sg11
I00
sg20
I00
sg40
I40
sg69
g259
sg271
g1136
sg46
g1136
sbsS'CastorHardcodeGeometryEP'
p1141
g0
(g253
g2
Ntp1142
Rp1143
(dp1144
g38
(lp1145
sg11
I00
sg20
I00
sg40
I40
sg69
g259
sg271
g1141
sg46
g1141
sbsS'stripCPEESProducer'
p1146
g0
(g253
g2
Ntp1147
Rp1148
(dp1149
g38
(lp1150
g987
ag988
ag989
asg11
I00
sg20
I00
sg989
g0
(g28
g2
Ntp1151
Rp1152
(dp1153
g11
I00
sg19
I01
sg20
I00
sg38
(lp1154
sbsg40
I40
sg988
g0
(g164
g2
Ntp1155
Rp1156
(dp1157
g11
I00
sg19
I01
sg37
S'stripCPE'
p1158
sg20
I00
sbsg987
g0
(g164
g2
Ntp1159
Rp1160
(dp1161
g11
I00
sg19
I01
sg37
S'SimpleStripCPE'
p1162
sg20
I00
sbsg69
g259
sg271
g1146
sg46
g1054
sbsS'EcalLaserCorrectionService'
p1163
g0
(g253
g2
Ntp1164
Rp1165
(dp1166
g38
(lp1167
sg11
I00
sg20
I00
sg40
I40
sg69
g259
sg271
g1163
sg46
g1163
sbsS'_Process__psets'
p1168
(dp1169
S'maxEvents'
p1170
g0
(g28
g2
Ntp1171
Rp1172
(dp1173
g11
I00
sg19
I00
sg20
I00
sg38
(lp1174
S'input'
p1175
asg271
g1170
sg1175
g0
(g103
g2
Ntp1176
Rp1177
(dp1178
g11
I00
sg19
I00
sg37
I100000
sg20
I00
sbsbsS'HcalReLabel'
p1179
g0
(g28
g2
Ntp1180
Rp1181
(dp1182
g11
I00
sg19
I01
sg20
I00
sS'RelabelRules'
p1183
g0
(g28
g2
Ntp1184
Rp1185
(dp1186
g11
I00
sg19
I00
sg20
I00
sS'Eta16'
p1187
g0
(cFWCore.ParameterSet.Types
vint32
p1188
g14
(lp1189
I1
aI1
aI2
aI2
aI2
aI2
aI2
aI2
aI2
aI3
aI3
aI3
aI3
aI3
aI3
aI3
aI3
aI3
aI3
atp1190
Rp1191
(dp1192
g11
I00
sg19
I00
sg20
I00
sbsS'Eta17'
p1193
g0
(g1188
g14
(lp1194
I1
aI1
aI2
aI2
aI3
aI3
aI3
aI4
aI4
aI4
aI4
aI4
aI5
aI5
aI5
aI5
aI5
aI5
aI5
atp1195
Rp1196
(dp1197
g11
I00
sg19
I00
sg20
I00
sbsS'CorrectPhi'
p1198
g0
(g33
g2
Ntp1199
Rp1200
(dp1201
g11
I00
sg19
I00
sg37
I00
sg20
I00
sbsg38
(lp1202
g1187
ag1193
aS'Eta1'
p1203
ag1198
asg1203
g0
(g1188
g14
(lp1204
I1
aI2
aI2
aI2
aI3
aI3
aI3
aI3
aI3
aI3
aI3
aI3
aI3
aI3
aI3
aI3
aI3
aI3
aI3
atp1205
Rp1206
(dp1207
g11
I00
sg19
I00
sg20
I00
sbsbsg38
(lp1208
g1183
aS'RelabelHits'
p1209
asg271
g1179
sg1209
g0
(g33
g2
Ntp1210
Rp1211
(dp1212
g11
I00
sg19
I00
sg37
I00
sg20
I00
sbsbsg364
g366
ssS'hcal_db_producer'
p1213
g0
(g253
g2
Ntp1214
Rp1215
(dp1216
g38
(lp1217
S'file'
p1218
aS'dump'
p1219
asg11
I00
sg20
I00
sg1219
g0
(g13
g14
(lp1220
g317
atp1221
Rp1222
(dp1223
g11
I00
sg19
I00
sg20
I00
sg21
I1
sbsg40
I40
sg69
g259
sg1218
g0
(g164
g2
Ntp1224
Rp1225
(dp1226
g11
I00
sg19
I00
sg37
g317
sg20
I00
sbsg271
g1213
sg46
S'HcalDbProducer'
p1227
sbsg795
g797
sS'_Process__essources'
p1228
(dp1229
S'HepPDTESSource'
p1230
g0
(g1058
g2
Ntp1231
Rp1232
(dp1233
g38
(lp1234
S'pdtFileName'
p1235
asg11
I00
sg1235
g0
(cFWCore.ParameterSet.Types
FileInPath
p1236
g2
Ntp1237
Rp1238
(dp1239
g11
I00
sg19
I01
sg37
S'SimGeneral/HepPDTESSource/data/pythiaparticle.tbl'
p1240
sg20
I00
sbsg20
I00
sg40
I4
sg69
S'/cvmfs/cms.cern.ch/slc6_amd64_gcc491/cms/cmssw/CMSSW_7_4_2/python/SimGeneral/HepPDTESSource/pythiapdt_cfi.py'
p1241
sg271
g1230
sg46
g1230
sbsg1057
g1060
sS'es_hardcode'
p1242
g0
(g1058
g2
Ntp1243
Rp1244
(dp1245
g38
(lp1246
g1179
aS'HERecalibration'
p1247
aS'toGet'
p1248
aS'GainWidthsForTrigPrims'
p1249
aS'HEreCalibCutoff'
p1250
aS'HFRecalibration'
p1251
aS'iLumi'
p1252
aS'hcalTopologyConstants'
p1253
asg11
I00
sg1179
g1181
sg20
I01
sg40
I19
sg1247
g0
(g33
g2
Ntp1254
Rp1255
(dp1256
g11
I00
sg19
I01
sg37
I00
sg20
I00
sbsg1253
g0
(g28
g2
Ntp1257
Rp1258
(dp1259
g11
I00
sg19
I01
sg20
I00
sS'maxDepthHE'
p1260
g0
(g103
g2
Ntp1261
Rp1262
(dp1263
g11
I00
sg19
I01
sg37
I3
sg20
I00
sbsS'maxDepthHB'
p1264
g0
(g103
g2
Ntp1265
Rp1266
(dp1267
g11
I00
sg19
I01
sg37
I2
sg20
I00
sbsg38
(lp1268
g1260
ag1264
aS'mode'
p1269
asg1269
g0
(g164
g2
Ntp1270
Rp1271
(dp1272
g11
I00
sg19
I01
sg37
S'HcalTopologyMode::LHC'
p1273
sg20
I00
sbsbsg1248
g0
(g13
g14
(lp1274
S'GainWidths'
p1275
atp1276
Rp1277
(dp1278
g11
I00
sg19
I00
sg20
I00
sg21
I1
sbsg1249
g0
(g33
g2
Ntp1279
Rp1280
(dp1281
g11
I00
sg19
I01
sg37
I00
sg20
I00
sbsg1250
g0
(g818
g2
Ntp1282
Rp1283
(dp1284
g11
I00
sg19
I01
sg37
F20.0
sg20
I00
sbsg1251
g0
(g33
g2
Ntp1285
Rp1286
(dp1287
g11
I00
sg19
I01
sg37
I00
sg20
I00
sbsg69
S'/cvmfs/cms.cern.ch/slc6_amd64_gcc491/cms/cmssw/CMSSW_7_4_2/python/CalibCalorimetry/HcalPlugins/Hcal_Conditions_forGlobalTag_cff.py'
p1288
sg271
g1242
sg1252
g0
(g818
g2
Ntp1289
Rp1290
(dp1291
g11
I00
sg19
I01
sg37
F-1.0
sg20
I00
sbsg46
S'HcalHardcodeCalibrations'
p1292
sbsS'XMLIdealGeometryESSource'
p1293
g0
(g1058
g2
Ntp1294
Rp1295
(dp1296
g38
(lp1297
S'geomXMLFiles'
p1298
aS'rootNodeName'
p1299
asg11
I00
sg20
I00
sg40
I282
sg1299
g0
(g164
g2
Ntp1300
Rp1301
(dp1302
g11
I00
sg19
I01
sg37
S'cms:OCMS'
p1303
sg20
I00
sbsg1298
g0
(g13
g14
(lp1304
S'Geometry/CMSCommonData/data/materials.xml'
p1305
aS'Geometry/CMSCommonData/data/rotations.xml'
p1306
aS'Geometry/CMSCommonData/data/extend/cmsextent.xml'
p1307
aS'Geometry/CMSCommonData/data/cms.xml'
p1308
aS'Geometry/CMSCommonData/data/cmsMother.xml'
p1309
aS'Geometry/CMSCommonData/data/cmsTracker.xml'
p1310
aS'Geometry/CMSCommonData/data/caloBase.xml'
p1311
aS'Geometry/CMSCommonData/data/cmsCalo.xml'
p1312
aS'Geometry/CMSCommonData/data/muonBase.xml'
p1313
aS'Geometry/CMSCommonData/data/cmsMuon.xml'
p1314
aS'Geometry/CMSCommonData/data/mgnt.xml'
p1315
aS'Geometry/CMSCommonData/data/PhaseI/beampipe.xml'
p1316
aS'Geometry/CMSCommonData/data/cmsBeam.xml'
p1317
aS'Geometry/CMSCommonData/data/muonMB.xml'
p1318
aS'Geometry/CMSCommonData/data/muonMagnet.xml'
p1319
aS'Geometry/CMSCommonData/data/cavern.xml'
p1320
aS'Geometry/TrackerCommonData/data/trackerParameters.xml'
p1321
aS'Geometry/TrackerCommonData/data/pixfwdMaterials.xml'
p1322
aS'Geometry/TrackerCommonData/data/pixfwdCommon.xml'
p1323
aS'Geometry/TrackerCommonData/data/pixfwdPlaq.xml'
p1324
aS'Geometry/TrackerCommonData/data/pixfwdPlaq1x2.xml'
p1325
aS'Geometry/TrackerCommonData/data/pixfwdPlaq1x5.xml'
p1326
aS'Geometry/TrackerCommonData/data/pixfwdPlaq2x3.xml'
p1327
aS'Geometry/TrackerCommonData/data/pixfwdPlaq2x4.xml'
p1328
aS'Geometry/TrackerCommonData/data/pixfwdPlaq2x5.xml'
p1329
aS'Geometry/TrackerCommonData/data/pixfwdPanelBase.xml'
p1330
aS'Geometry/TrackerCommonData/data/pixfwdPanel.xml'
p1331
aS'Geometry/TrackerCommonData/data/pixfwdBlade.xml'
p1332
aS'Geometry/TrackerCommonData/data/pixfwdNipple.xml'
p1333
aS'Geometry/TrackerCommonData/data/Pilot/pixfwdPilotBlade.xml'
p1334
aS'Geometry/TrackerCommonData/data/Pilot/pixfwdDisk.xml'
p1335
aS'Geometry/TrackerCommonData/data/Pilot/pixfwdCylinder.xml'
p1336
aS'Geometry/TrackerCommonData/data/Pilot/pixfwd.xml'
p1337
aS'Geometry/TrackerCommonData/data/pixbarmaterial.xml'
p1338
aS'Geometry/TrackerCommonData/data/pixbarladder.xml'
p1339
aS'Geometry/TrackerCommonData/data/pixbarladderfull.xml'
p1340
aS'Geometry/TrackerCommonData/data/pixbarladderhalf.xml'
p1341
aS'Geometry/TrackerCommonData/data/pixbarlayer.xml'
p1342
aS'Geometry/TrackerCommonData/data/pixbarlayer0.xml'
p1343
aS'Geometry/TrackerCommonData/data/pixbarlayer1.xml'
p1344
aS'Geometry/TrackerCommonData/data/pixbarlayer2.xml'
p1345
aS'Geometry/TrackerCommonData/data/pixbar.xml'
p1346
aS'Geometry/TrackerCommonData/data/tibtidcommonmaterial.xml'
p1347
aS'Geometry/TrackerCommonData/data/tibmaterial.xml'
p1348
aS'Geometry/TrackerCommonData/data/tibmodpar.xml'
p1349
aS'Geometry/TrackerCommonData/data/tibmodule0.xml'
p1350
aS'Geometry/TrackerCommonData/data/tibmodule0a.xml'
p1351
aS'Geometry/TrackerCommonData/data/tibmodule0b.xml'
p1352
aS'Geometry/TrackerCommonData/data/tibmodule2.xml'
p1353
aS'Geometry/TrackerCommonData/data/tibstringpar.xml'
p1354
aS'Geometry/TrackerCommonData/data/tibstring0ll.xml'
p1355
aS'Geometry/TrackerCommonData/data/tibstring0lr.xml'
p1356
aS'Geometry/TrackerCommonData/data/tibstring0ul.xml'
p1357
aS'Geometry/TrackerCommonData/data/tibstring0ur.xml'
p1358
aS'Geometry/TrackerCommonData/data/tibstring0.xml'
p1359
aS'Geometry/TrackerCommonData/data/tibstring1ll.xml'
p1360
aS'Geometry/TrackerCommonData/data/tibstring1lr.xml'
p1361
aS'Geometry/TrackerCommonData/data/tibstring1ul.xml'
p1362
aS'Geometry/TrackerCommonData/data/tibstring1ur.xml'
p1363
aS'Geometry/TrackerCommonData/data/tibstring1.xml'
p1364
aS'Geometry/TrackerCommonData/data/tibstring2ll.xml'
p1365
aS'Geometry/TrackerCommonData/data/tibstring2lr.xml'
p1366
aS'Geometry/TrackerCommonData/data/tibstring2ul.xml'
p1367
aS'Geometry/TrackerCommonData/data/tibstring2ur.xml'
p1368
aS'Geometry/TrackerCommonData/data/tibstring2.xml'
p1369
aS'Geometry/TrackerCommonData/data/tibstring3ll.xml'
p1370
aS'Geometry/TrackerCommonData/data/tibstring3lr.xml'
p1371
aS'Geometry/TrackerCommonData/data/tibstring3ul.xml'
p1372
aS'Geometry/TrackerCommonData/data/tibstring3ur.xml'
p1373
aS'Geometry/TrackerCommonData/data/tibstring3.xml'
p1374
aS'Geometry/TrackerCommonData/data/tiblayerpar.xml'
p1375
aS'Geometry/TrackerCommonData/data/tiblayer0.xml'
p1376
aS'Geometry/TrackerCommonData/data/tiblayer1.xml'
p1377
aS'Geometry/TrackerCommonData/data/tiblayer2.xml'
p1378
aS'Geometry/TrackerCommonData/data/tiblayer3.xml'
p1379
aS'Geometry/TrackerCommonData/data/tib.xml'
p1380
aS'Geometry/TrackerCommonData/data/tidmaterial.xml'
p1381
aS'Geometry/TrackerCommonData/data/tidmodpar.xml'
p1382
aS'Geometry/TrackerCommonData/data/tidmodule0.xml'
p1383
aS'Geometry/TrackerCommonData/data/tidmodule0r.xml'
p1384
aS'Geometry/TrackerCommonData/data/tidmodule0l.xml'
p1385
aS'Geometry/TrackerCommonData/data/tidmodule1.xml'
p1386
aS'Geometry/TrackerCommonData/data/tidmodule1r.xml'
p1387
aS'Geometry/TrackerCommonData/data/tidmodule1l.xml'
p1388
aS'Geometry/TrackerCommonData/data/tidmodule2.xml'
p1389
aS'Geometry/TrackerCommonData/data/tidringpar.xml'
p1390
aS'Geometry/TrackerCommonData/data/tidring0.xml'
p1391
aS'Geometry/TrackerCommonData/data/tidring0f.xml'
p1392
aS'Geometry/TrackerCommonData/data/tidring0b.xml'
p1393
aS'Geometry/TrackerCommonData/data/tidring1.xml'
p1394
aS'Geometry/TrackerCommonData/data/tidring1f.xml'
p1395
aS'Geometry/TrackerCommonData/data/tidring1b.xml'
p1396
aS'Geometry/TrackerCommonData/data/tidring2.xml'
p1397
aS'Geometry/TrackerCommonData/data/tid.xml'
p1398
aS'Geometry/TrackerCommonData/data/tidf.xml'
p1399
aS'Geometry/TrackerCommonData/data/tidb.xml'
p1400
aS'Geometry/TrackerCommonData/data/tibtidservices.xml'
p1401
aS'Geometry/TrackerCommonData/data/tibtidservicesf.xml'
p1402
aS'Geometry/TrackerCommonData/data/tibtidservicesb.xml'
p1403
aS'Geometry/TrackerCommonData/data/tobmaterial.xml'
p1404
aS'Geometry/TrackerCommonData/data/tobmodpar.xml'
p1405
aS'Geometry/TrackerCommonData/data/tobmodule0.xml'
p1406
aS'Geometry/TrackerCommonData/data/tobmodule2.xml'
p1407
aS'Geometry/TrackerCommonData/data/tobmodule4.xml'
p1408
aS'Geometry/TrackerCommonData/data/tobrodpar.xml'
p1409
aS'Geometry/TrackerCommonData/data/tobrod0c.xml'
p1410
aS'Geometry/TrackerCommonData/data/tobrod0l.xml'
p1411
aS'Geometry/TrackerCommonData/data/tobrod0h.xml'
p1412
aS'Geometry/TrackerCommonData/data/tobrod0.xml'
p1413
aS'Geometry/TrackerCommonData/data/tobrod1l.xml'
p1414
aS'Geometry/TrackerCommonData/data/tobrod1h.xml'
p1415
aS'Geometry/TrackerCommonData/data/tobrod1.xml'
p1416
aS'Geometry/TrackerCommonData/data/tobrod2c.xml'
p1417
aS'Geometry/TrackerCommonData/data/tobrod2l.xml'
p1418
aS'Geometry/TrackerCommonData/data/tobrod2h.xml'
p1419
aS'Geometry/TrackerCommonData/data/tobrod2.xml'
p1420
aS'Geometry/TrackerCommonData/data/tobrod3l.xml'
p1421
aS'Geometry/TrackerCommonData/data/tobrod3h.xml'
p1422
aS'Geometry/TrackerCommonData/data/tobrod3.xml'
p1423
aS'Geometry/TrackerCommonData/data/tobrod4c.xml'
p1424
aS'Geometry/TrackerCommonData/data/tobrod4l.xml'
p1425
aS'Geometry/TrackerCommonData/data/tobrod4h.xml'
p1426
aS'Geometry/TrackerCommonData/data/tobrod4.xml'
p1427
aS'Geometry/TrackerCommonData/data/tobrod5l.xml'
p1428
aS'Geometry/TrackerCommonData/data/tobrod5h.xml'
p1429
aS'Geometry/TrackerCommonData/data/tobrod5.xml'
p1430
aS'Geometry/TrackerCommonData/data/tob.xml'
p1431
aS'Geometry/TrackerCommonData/data/tecmaterial.xml'
p1432
aS'Geometry/TrackerCommonData/data/tecmodpar.xml'
p1433
aS'Geometry/TrackerCommonData/data/tecmodule0.xml'
p1434
aS'Geometry/TrackerCommonData/data/tecmodule0r.xml'
p1435
aS'Geometry/TrackerCommonData/data/tecmodule0s.xml'
p1436
aS'Geometry/TrackerCommonData/data/tecmodule1.xml'
p1437
aS'Geometry/TrackerCommonData/data/tecmodule1r.xml'
p1438
aS'Geometry/TrackerCommonData/data/tecmodule1s.xml'
p1439
aS'Geometry/TrackerCommonData/data/tecmodule2.xml'
p1440
aS'Geometry/TrackerCommonData/data/tecmodule3.xml'
p1441
aS'Geometry/TrackerCommonData/data/tecmodule4.xml'
p1442
aS'Geometry/TrackerCommonData/data/tecmodule4r.xml'
p1443
aS'Geometry/TrackerCommonData/data/tecmodule4s.xml'
p1444
aS'Geometry/TrackerCommonData/data/tecmodule5.xml'
p1445
aS'Geometry/TrackerCommonData/data/tecmodule6.xml'
p1446
aS'Geometry/TrackerCommonData/data/tecpetpar.xml'
p1447
aS'Geometry/TrackerCommonData/data/tecring0.xml'
p1448
aS'Geometry/TrackerCommonData/data/tecring1.xml'
p1449
aS'Geometry/TrackerCommonData/data/tecring2.xml'
p1450
aS'Geometry/TrackerCommonData/data/tecring3.xml'
p1451
aS'Geometry/TrackerCommonData/data/tecring4.xml'
p1452
aS'Geometry/TrackerCommonData/data/tecring5.xml'
p1453
aS'Geometry/TrackerCommonData/data/tecring6.xml'
p1454
aS'Geometry/TrackerCommonData/data/tecring0f.xml'
p1455
aS'Geometry/TrackerCommonData/data/tecring1f.xml'
p1456
aS'Geometry/TrackerCommonData/data/tecring2f.xml'
p1457
aS'Geometry/TrackerCommonData/data/tecring3f.xml'
p1458
aS'Geometry/TrackerCommonData/data/tecring4f.xml'
p1459
aS'Geometry/TrackerCommonData/data/tecring5f.xml'
p1460
aS'Geometry/TrackerCommonData/data/tecring6f.xml'
p1461
aS'Geometry/TrackerCommonData/data/tecring0b.xml'
p1462
aS'Geometry/TrackerCommonData/data/tecring1b.xml'
p1463
aS'Geometry/TrackerCommonData/data/tecring2b.xml'
p1464
aS'Geometry/TrackerCommonData/data/tecring3b.xml'
p1465
aS'Geometry/TrackerCommonData/data/tecring4b.xml'
p1466
aS'Geometry/TrackerCommonData/data/tecring5b.xml'
p1467
aS'Geometry/TrackerCommonData/data/tecring6b.xml'
p1468
aS'Geometry/TrackerCommonData/data/tecpetalf.xml'
p1469
aS'Geometry/TrackerCommonData/data/tecpetalb.xml'
p1470
aS'Geometry/TrackerCommonData/data/tecpetal0.xml'
p1471
aS'Geometry/TrackerCommonData/data/tecpetal0f.xml'
p1472
aS'Geometry/TrackerCommonData/data/tecpetal0b.xml'
p1473
aS'Geometry/TrackerCommonData/data/tecpetal3.xml'
p1474
aS'Geometry/TrackerCommonData/data/tecpetal3f.xml'
p1475
aS'Geometry/TrackerCommonData/data/tecpetal3b.xml'
p1476
aS'Geometry/TrackerCommonData/data/tecpetal6f.xml'
p1477
aS'Geometry/TrackerCommonData/data/tecpetal6b.xml'
p1478
aS'Geometry/TrackerCommonData/data/tecpetal8f.xml'
p1479
aS'Geometry/TrackerCommonData/data/tecpetal8b.xml'
p1480
aS'Geometry/TrackerCommonData/data/tecwheel.xml'
p1481
aS'Geometry/TrackerCommonData/data/tecwheela.xml'
p1482
aS'Geometry/TrackerCommonData/data/tecwheelb.xml'
p1483
aS'Geometry/TrackerCommonData/data/tecwheelc.xml'
p1484
aS'Geometry/TrackerCommonData/data/tecwheeld.xml'
p1485
aS'Geometry/TrackerCommonData/data/tecwheel6.xml'
p1486
aS'Geometry/TrackerCommonData/data/tecservices.xml'
p1487
aS'Geometry/TrackerCommonData/data/tecbackplate.xml'
p1488
aS'Geometry/TrackerCommonData/data/tec.xml'
p1489
aS'Geometry/TrackerCommonData/data/trackermaterial.xml'
p1490
aS'Geometry/TrackerCommonData/data/tracker.xml'
p1491
aS'Geometry/TrackerCommonData/data/trackerpixbar.xml'
p1492
aS'Geometry/TrackerCommonData/data/trackerpixfwd.xml'
p1493
aS'Geometry/TrackerCommonData/data/trackertibtidservices.xml'
p1494
aS'Geometry/TrackerCommonData/data/trackertib.xml'
p1495
aS'Geometry/TrackerCommonData/data/trackertid.xml'
p1496
aS'Geometry/TrackerCommonData/data/trackertob.xml'
p1497
aS'Geometry/TrackerCommonData/data/trackertec.xml'
p1498
aS'Geometry/TrackerCommonData/data/trackerbulkhead.xml'
p1499
aS'Geometry/TrackerCommonData/data/trackerother.xml'
p1500
aS'Geometry/EcalCommonData/data/eregalgo.xml'
p1501
aS'Geometry/EcalCommonData/data/ebalgo.xml'
p1502
aS'Geometry/EcalCommonData/data/ebcon.xml'
p1503
aS'Geometry/EcalCommonData/data/ebrot.xml'
p1504
aS'Geometry/EcalCommonData/data/eecon.xml'
p1505
aS'Geometry/EcalCommonData/data/eefixed.xml'
p1506
aS'Geometry/EcalCommonData/data/eehier.xml'
p1507
aS'Geometry/EcalCommonData/data/eealgo.xml'
p1508
aS'Geometry/EcalCommonData/data/escon.xml'
p1509
aS'Geometry/EcalCommonData/data/esalgo.xml'
p1510
aS'Geometry/EcalCommonData/data/eeF.xml'
p1511
aS'Geometry/EcalCommonData/data/eeB.xml'
p1512
aS'Geometry/HcalCommonData/data/hcalrotations.xml'
p1513
aS'Geometry/HcalCommonData/data/hcalalgo.xml'
p1514
aS'Geometry/HcalCommonData/data/hcalbarrelalgo.xml'
p1515
aS'Geometry/HcalCommonData/data/hcalendcapalgo.xml'
p1516
aS'Geometry/HcalCommonData/data/hcalouteralgo.xml'
p1517
aS'Geometry/HcalCommonData/data/hcalforwardalgo.xml'
p1518
aS'Geometry/HcalCommonData/data/average/hcalforwardmaterial.xml'
p1519
aS'Geometry/MuonCommonData/data/v1/mbCommon.xml'
p1520
aS'Geometry/MuonCommonData/data/v1/mb1.xml'
p1521
aS'Geometry/MuonCommonData/data/v1/mb2.xml'
p1522
aS'Geometry/MuonCommonData/data/v1/mb3.xml'
p1523
aS'Geometry/MuonCommonData/data/v1/mb4.xml'
p1524
aS'Geometry/MuonCommonData/data/design/muonYoke.xml'
p1525
aS'Geometry/MuonCommonData/data/v2/mf.xml'
p1526
aS'Geometry/MuonCommonData/data/v2/rpcf.xml'
p1527
aS'Geometry/MuonCommonData/data/v2/csc.xml'
p1528
aS'Geometry/MuonCommonData/data/v2/mfshield.xml'
p1529
aS'Geometry/ForwardCommonData/data/forward.xml'
p1530
aS'Geometry/ForwardCommonData/data/v2/forwardshield.xml'
p1531
aS'Geometry/ForwardCommonData/data/brmrotations.xml'
p1532
aS'Geometry/ForwardCommonData/data/brm.xml'
p1533
aS'Geometry/ForwardCommonData/data/totemMaterials.xml'
p1534
aS'Geometry/ForwardCommonData/data/totemRotations.xml'
p1535
aS'Geometry/ForwardCommonData/data/totemt1.xml'
p1536
aS'Geometry/ForwardCommonData/data/totemt2.xml'
p1537
aS'Geometry/ForwardCommonData/data/ionpump.xml'
p1538
aS'Geometry/ForwardCommonData/data/castor.xml'
p1539
aS'Geometry/ForwardCommonData/data/zdcmaterials.xml'
p1540
aS'Geometry/ForwardCommonData/data/lumimaterials.xml'
p1541
aS'Geometry/ForwardCommonData/data/zdcrotations.xml'
p1542
aS'Geometry/ForwardCommonData/data/lumirotations.xml'
p1543
aS'Geometry/ForwardCommonData/data/zdc.xml'
p1544
aS'Geometry/ForwardCommonData/data/zdclumi.xml'
p1545
aS'Geometry/ForwardCommonData/data/cmszdc.xml'
p1546
aS'Geometry/ForwardCommonData/data/bhm.xml'
p1547
aS'Geometry/ForwardCommonData/data/pltbcm.xml'
p1548
aS'Geometry/ForwardCommonData/data/bcm1f.xml'
p1549
aS'Geometry/ForwardSimData/data/bcm1fsens.xml'
p1550
aS'Geometry/ForwardCommonData/data/plt.xml'
p1551
aS'Geometry/MuonCommonData/data/v2/muonNumbering.xml'
p1552
aS'Geometry/TrackerCommonData/data/trackerStructureTopology.xml'
p1553
aS'Geometry/TrackerSimData/data/trackersens.xml'
p1554
aS'Geometry/TrackerRecoData/data/trackerRecoMaterial.xml'
p1555
aS'Geometry/EcalSimData/data/ecalsens.xml'
p1556
aS'Geometry/HcalCommonData/data/hcalsenspmf.xml'
p1557
aS'Geometry/HcalSimData/data/hf.xml'
p1558
aS'Geometry/HcalSimData/data/hfpmt.xml'
p1559
aS'Geometry/HcalSimData/data/hffibrebundle.xml'
p1560
aS'Geometry/HcalSimData/data/CaloUtil.xml'
p1561
aS'Geometry/MuonSimData/data/muonSens.xml'
p1562
aS'Geometry/DTGeometryBuilder/data/dtSpecsFilter.xml'
p1563
aS'Geometry/CSCGeometryBuilder/data/cscSpecsFilter.xml'
p1564
aS'Geometry/CSCGeometryBuilder/data/cscSpecs.xml'
p1565
aS'Geometry/RPCGeometryBuilder/data/RPCSpecs.xml'
p1566
aS'Geometry/ForwardCommonData/data/brmsens.xml'
p1567
aS'Geometry/ForwardSimData/data/castorsens.xml'
p1568
aS'Geometry/ForwardSimData/data/zdcsens.xml'
p1569
aS'Geometry/HcalSimData/data/HcalProdCuts.xml'
p1570
aS'Geometry/EcalSimData/data/EcalProdCuts.xml'
p1571
aS'Geometry/EcalSimData/data/ESProdCuts.xml'
p1572
aS'Geometry/TrackerSimData/data/trackerProdCuts.xml'
p1573
aS'Geometry/TrackerSimData/data/trackerProdCutsBEAM.xml'
p1574
aS'Geometry/MuonSimData/data/muonProdCuts.xml'
p1575
aS'Geometry/ForwardSimData/data/CastorProdCuts.xml'
p1576
aS'Geometry/ForwardSimData/data/zdcProdCuts.xml'
p1577
aS'Geometry/ForwardSimData/data/ForwardShieldProdCuts.xml'
p1578
aS'Geometry/CMSCommonData/data/FieldParameters.xml'
p1579
atp1580
Rp1581
(dp1582
g11
I00
sg19
I01
sg20
I00
sg21
I1
sbsg69
S'/cvmfs/cms.cern.ch/slc6_amd64_gcc491/cms/cmssw/CMSSW_7_4_2/python/Geometry/CMSCommonData/cmsExtendedGeometry2015XML_cfi.py'
p1583
sg271
g1293
sg46
g1293
sbsS'GlobalTag'
p1584
g0
(g1058
g2
Ntp1585
Rp1586
(dp1587
g38
(lp1588
g368
aS'BlobStreamerName'
p1589
ag1248
aS'connect'
p1590
aS'globaltag'
p1591
asg11
I00
sg20
I01
sg1591
g0
(g164
g2
Ntp1592
Rp1593
(dp1594
g11
I00
sg19
I01
sg37
S'MCRUN2_740TV1::All'
p1595
sg20
I01
sbsg40
I10
sg69
S'/cvmfs/cms.cern.ch/slc6_amd64_gcc491/cms/cmssw/CMSSW_7_4_2/python/Configuration/StandardSequences/FrontierConditions_GlobalTag_cfi.py'
p1596
sg1248
g0
(g828
g14
(lp1597
tp1598
Rp1599
(dp1600
g11
I00
sg19
I01
sg20
I00
sg21
I1
sbsg368
g0
(g28
g2
Ntp1601
Rp1602
(dp1603
g11
I00
sg19
I01
sg376
g0
(g164
g2
Ntp1604
Rp1605
(dp1606
g11
I00
sg19
I00
sg37
g317
sg20
I00
sbsg372
g0
(g103
g2
Ntp1607
Rp1608
(dp1609
g11
I00
sg19
I00
sg37
I10
sg20
I00
sbsg20
I00
sg380
g0
(g103
g2
Ntp1610
Rp1611
(dp1612
g11
I00
sg19
I00
sg37
I10
sg20
I00
sbsg384
g0
(g103
g2
Ntp1613
Rp1614
(dp1615
g11
I00
sg19
I00
sg37
I0
sg20
I00
sbsg388
g0
(g33
g2
Ntp1616
Rp1617
(dp1618
g11
I00
sg19
I00
sg37
I00
sg20
I00
sbsg392
g0
(g33
g2
Ntp1619
Rp1620
(dp1621
g11
I00
sg19
I00
sg37
I01
sg20
I00
sbsg396
g0
(g33
g2
Ntp1622
Rp1623
(dp1624
g11
I00
sg19
I00
sg37
I00
sg20
I00
sbsg38
(lp1625
g376
ag396
ag380
ag384
ag388
ag392
ag401
ag402
ag403
ag372
asg402
g0
(g103
g2
Ntp1626
Rp1627
(dp1628
g11
I00
sg19
I00
sg37
I60
sg20
I00
sbsg403
g0
(g103
g2
Ntp1629
Rp1630
(dp1631
g11
I00
sg19
I00
sg37
I0
sg20
I00
sbsg401
g0
(g103
g2
Ntp1632
Rp1633
(dp1634
g11
I00
sg19
I00
sg37
I60
sg20
I00
sbsbsg1590
g0
(g164
g2
Ntp1635
Rp1636
(dp1637
g11
I00
sg19
I01
sg37
S'frontier://FrontierProd/CMS_COND_31X_GLOBALTAG'
p1638
sg20
I00
sbsg271
g1584
sg1589
g0
(g164
g2
Ntp1639
Rp1640
(dp1641
g11
I00
sg19
I00
sg37
S'TBufferBlobStreamingService'
p1642
sg20
I00
sbsg46
S'PoolDBESSource'
p1643
sbssg981
g964
sS'randomEngineStateProducer'
p1644
g0
(cFWCore.ParameterSet.Modules
EDProducer
p1645
g2
Ntp1646
Rp1647
(dp1648
g38
(lp1649
sg11
I00
sg20
I00
sg40
I170
sg69
S'/cvmfs/cms.cern.ch/slc6_amd64_gcc491/cms/cmssw/CMSSW_7_4_2/python/IOMC/RandomEngine/IOMC_cff.py'
p1650
sg271
g1644
sg46
S'RandomEngineStateProducer'
p1651
sbsg1170
g1172
sS'source'
p1652
g964
sS'CastorDbProducer'
p1653
g0
(g253
g2
Ntp1654
Rp1655
(dp1656
g38
(lp1657
sg11
I00
sg20
I00
sg40
I40
sg69
g259
sg271
g1653
sg46
g1653
sbsS'MuonDetLayerGeometryESProducer'
p1658
g0
(g253
g2
Ntp1659
Rp1660
(dp1661
g38
(lp1662
sg11
I00
sg20
I00
sg40
I40
sg69
g259
sg271
g1658
sg46
g1658
sbsS'_Process__vpsets'
p1663
(dp1664
sg463
g465
sS'_Process__name'
p1665
S'TrackAnalysis'
p1666
sS'idealForDigiDTGeometry'
p1667
g0
(g253
g2
Ntp1668
Rp1669
(dp1670
g38
(lp1671
g419
ag420
ag928
ag924
asg11
I00
sg419
g0
(g164
g2
Ntp1672
Rp1673
(dp1674
g11
I00
sg19
I01
sg37
S'idealForDigi'
p1675
sg20
I01
sbsg20
I01
sg924
g0
(g164
g2
Ntp1676
Rp1677
(dp1678
g11
I00
sg19
I01
sg37
S'fakeForIdeal'
p1679
sg20
I01
sbsg69
S'/cvmfs/cms.cern.ch/slc6_amd64_gcc491/cms/cmssw/CMSSW_7_4_2/python/Geometry/DTGeometryBuilder/idealForDigiDtGeometry_cff.py'
p1680
sg40
I8
sg271
g1667
sg420
g0
(g33
g2
Ntp1681
Rp1682
(dp1683
g11
I00
sg19
I01
sg37
I01
sg20
I00
sbsg928
g0
(g33
g2
Ntp1684
Rp1685
(dp1686
g11
I00
sg19
I01
sg37
I00
sg20
I01
sbsg46
S'DTGeometryESModule'
p1687
sbsS'EcalEndcapGeometryEP'
p1688
g0
(g253
g2
Ntp1689
Rp1690
(dp1691
g38
(lp1692
g928
asg11
I00
sg20
I00
sg40
I40
sg69
g259
sg271
g1688
sg928
g0
(g33
g2
Ntp1693
Rp1694
(dp1695
g11
I00
sg19
I01
sg37
I00
sg20
I00
sbsg46
g1688
sbsg1242
g1244
sS'es_prefer_hcalHardcode'
p1696
g0
(cFWCore.ParameterSet.Modules
ESPrefer
p1697
g2
Ntp1698
Rp1699
(dp1700
g38
(lp1701
sg11
I00
sg20
I00
sS'_targetLabel'
p1702
g1242
sg40
I73
sg69
S'/cvmfs/cms.cern.ch/slc6_amd64_gcc491/cms/cmssw/CMSSW_7_4_2/python/FWCore/ParameterSet/Modules.py'
p1703
sg271
g1696
sg46
g1292
sbsg1293
g1295
sS'idealForDigiCSCGeometry'
p1704
g0
(g253
g2
Ntp1705
Rp1706
(dp1707
g38
(lp1708
g419
ag921
ag922
ag923
ag924
ag925
ag926
ag927
ag928
asg11
I00
sg419
g0
(g164
g2
Ntp1709
Rp1710
(dp1711
g11
I00
sg19
I01
sg37
g1675
sg20
I01
sbsg20
I01
sg922
g0
(g33
g2
Ntp1712
Rp1713
(dp1714
g11
I00
sg19
I00
sg37
I00
sg20
I00
sbsg69
S'/cvmfs/cms.cern.ch/slc6_amd64_gcc491/cms/cmssw/CMSSW_7_4_2/python/Geometry/CSCGeometryBuilder/idealForDigiCscGeometry_cff.py'
p1715
sg923
g0
(g33
g2
Ntp1716
Rp1717
(dp1718
g11
I00
sg19
I01
sg37
I01
sg20
I00
sbsg924
g0
(g164
g2
Ntp1719
Rp1720
(dp1721
g11
I00
sg19
I01
sg37
g1679
sg20
I01
sbsg925
g0
(g33
g2
Ntp1722
Rp1723
(dp1724
g11
I00
sg19
I01
sg37
I00
sg20
I00
sbsg921
g0
(g33
g2
Ntp1725
Rp1726
(dp1727
g11
I00
sg19
I01
sg37
I01
sg20
I00
sbsg40
I8
sg927
g0
(g33
g2
Ntp1728
Rp1729
(dp1730
g11
I00
sg19
I01
sg37
I00
sg20
I00
sbsg271
g1704
sg926
g0
(g33
g2
Ntp1731
Rp1732
(dp1733
g11
I00
sg19
I01
sg37
I01
sg20
I00
sbsg928
g0
(g33
g2
Ntp1734
Rp1735
(dp1736
g11
I00
sg19
I01
sg37
I00
sg20
I01
sbsg46
g916
sbsS'MuonNumberingInitialization'
p1737
g0
(g253
g2
Ntp1738
Rp1739
(dp1740
g38
(lp1741
sg11
I00
sg20
I00
sg40
I40
sg69
g259
sg271
g1737
sg46
g1737
sbsS'siStripBackPlaneCorrectionDepESProducer'
p1742
g0
(g253
g2
Ntp1743
Rp1744
(dp1745
g38
(lp1746
S'LatencyRecord'
p1747
aS'BackPlaneCorrectionDeconvMode'
p1748
aS'BackPlaneCorrectionPeakMode'
p1749
asg11
I00
sg20
I00
sg40
I40
sg69
g259
sg1747
g0
(g28
g2
Ntp1750
Rp1751
(dp1752
g11
I00
sg19
I01
sg20
I00
sS'label'
p1753
g0
(g164
g2
Ntp1754
Rp1755
(dp1756
g11
I00
sg19
I00
sg37
g317
sg20
I00
sbsg833
g0
(g164
g2
Ntp1757
Rp1758
(dp1759
g11
I00
sg19
I01
sg37
S'SiStripLatencyRcd'
p1760
sg20
I00
sbsg38
(lp1761
g833
ag1753
asbsg1749
g0
(g28
g2
Ntp1762
Rp1763
(dp1764
g11
I00
sg19
I01
sg20
I00
sg1753
g0
(g164
g2
Ntp1765
Rp1766
(dp1767
g11
I00
sg19
I00
sg37
S'peak'
p1768
sg20
I00
sbsg833
g0
(g164
g2
Ntp1769
Rp1770
(dp1771
g11
I00
sg19
I01
sg37
S'SiStripBackPlaneCorrectionRcd'
p1772
sg20
I00
sbsg38
(lp1773
g833
ag1753
asbsg271
g1742
sg1748
g0
(g28
g2
Ntp1774
Rp1775
(dp1776
g11
I00
sg19
I01
sg20
I00
sg1753
g0
(g164
g2
Ntp1777
Rp1778
(dp1779
g11
I00
sg19
I00
sg37
S'deconvolution'
p1780
sg20
I00
sbsg833
g0
(g164
g2
Ntp1781
Rp1782
(dp1783
g11
I00
sg19
I01
sg37
g1772
sg20
I00
sbsg38
(lp1784
g833
ag1753
asbsg46
S'SiStripBackPlaneCorrectionDepESProducer'
p1785
sbsg1179
g1181
sS'_cloneToObjectDict'
p1786
(dp1787
I30016528
g918
sI29926480
g1181
sI31896720
g0
(g253
g2
Ntp1788
Rp1789
(dp1790
g38
(lp1791
S'Exclude'
p1792
ag419
ag1253
asg11
I00
sg419
g0
(g164
g2
Ntp1793
Rp1794
(dp1795
g11
I00
sg19
I01
sg37
g317
sg20
I00
sbsg20
I01
sg40
I5
sg69
S'/cvmfs/cms.cern.ch/slc6_amd64_gcc491/cms/cmssw/CMSSW_7_4_2/python/Geometry/HcalEventSetup/HcalTopology_cfi.py'
p1796
sg1253
g0
(g28
g2
Ntp1797
Rp1798
(dp1799
g11
I00
sg19
I01
sg20
I00
sg1260
g0
(g103
g2
Ntp1800
Rp1801
(dp1802
g11
I00
sg19
I01
sg37
I3
sg20
I00
sbsg1264
g0
(g103
g2
Ntp1803
Rp1804
(dp1805
g11
I00
sg19
I01
sg37
I2
sg20
I00
sbsg38
(lp1806
g1260
ag1264
ag1269
asg1269
g0
(g164
g2
Ntp1807
Rp1808
(dp1809
g11
I00
sg19
I01
sg37
g1273
sg20
I00
sbsbsg271
S'hcalTopologyIdeal'
p1810
sg1792
g0
(g164
g2
Ntp1811
Rp1812
(dp1813
g11
I00
sg19
I00
sg37
g317
sg20
I00
sbsg46
S'HcalTopologyIdealEP'
p1814
sbsI29967568
g1295
sI29988880
g1232
sI30026256
g1739
sI32050384
g1690
sI29970896
g0
(g253
g2
Ntp1815
Rp1816
(dp1817
g38
(lp1818
S'printDebug'
p1819
ag419
aS'APVGain'
p1820
aS'AutomaticNormalization'
p1821
asg11
I00
sg419
g0
(g164
g2
Ntp1822
Rp1823
(dp1824
g11
I00
sg19
I01
sg37
g317
sg20
I00
sbsg20
I00
sg1821
g0
(g33
g2
Ntp1825
Rp1826
(dp1827
g11
I00
sg19
I01
sg37
I00
sg20
I00
sbsg40
I40
sg1819
g0
(g33
g2
Ntp1828
Rp1829
(dp1830
g11
I00
sg19
I00
sg37
I00
sg20
I00
sbsg69
g259
sg1820
g0
(g828
g14
(lp1831
g0
(g28
g2
Ntp1832
Rp1833
(dp1834
g11
I00
sg19
I01
sg20
I00
sS'Label'
p1835
g0
(g164
g2
Ntp1836
Rp1837
(dp1838
g11
I00
sg19
I00
sg37
g317
sg20
I00
sbsS'Record'
p1839
g0
(g164
g2
Ntp1840
Rp1841
(dp1842
g11
I00
sg19
I01
sg37
S'SiStripApvGainRcd'
p1843
sg20
I00
sbsS'NormalizationFactor'
p1844
g0
(g818
g2
Ntp1845
Rp1846
(dp1847
g11
I00
sg19
I00
sg37
F1.0
sg20
I00
sbsg38
(lp1848
g1839
ag1844
ag1835
asbag0
(g28
g2
Ntp1849
Rp1850
(dp1851
g11
I00
sg19
I01
sg20
I00
sg1835
g0
(g164
g2
Ntp1852
Rp1853
(dp1854
g11
I00
sg19
I00
sg37
g317
sg20
I00
sbsg1839
g0
(g164
g2
Ntp1855
Rp1856
(dp1857
g11
I00
sg19
I01
sg37
S'SiStripApvGain2Rcd'
p1858
sg20
I00
sbsg1844
g0
(g818
g2
Ntp1859
Rp1860
(dp1861
g11
I00
sg19
I00
sg37
F1.0
sg20
I00
sbsg38
(lp1862
g1839
ag1844
ag1835
asbatp1863
Rp1864
(dp1865
g11
I00
sg19
I01
sg20
I00
sg21
I1
sbsg271
S'siStripGainESProducer'
p1866
sg46
S'SiStripGainESProducer'
p1867
sbsI29927056
g1244
sI29927120
g1699
sI30036048
g1087
sI29988624
g1172
sI29972432
g1744
sI29971792
g0
(g253
g2
Ntp1868
Rp1869
(dp1870
g38
(lp1871
g1747
aS'LorentzAngleDeconvMode'
p1872
aS'LorentzAnglePeakMode'
p1873
asg11
I00
sg20
I00
sg40
I40
sg69
g259
sg1747
g0
(g28
g2
Ntp1874
Rp1875
(dp1876
g11
I00
sg19
I01
sg20
I00
sg1753
g0
(g164
g2
Ntp1877
Rp1878
(dp1879
g11
I00
sg19
I00
sg37
g317
sg20
I00
sbsg833
g0
(g164
g2
Ntp1880
Rp1881
(dp1882
g11
I00
sg19
I01
sg37
g1760
sg20
I00
sbsg38
(lp1883
g833
ag1753
asbsg271
S'siStripLorentzAngleDepESProducer'
p1884
sg1873
g0
(g28
g2
Ntp1885
Rp1886
(dp1887
g11
I00
sg19
I01
sg20
I00
sg1753
g0
(g164
g2
Ntp1888
Rp1889
(dp1890
g11
I00
sg19
I00
sg37
g1768
sg20
I00
sbsg833
g0
(g164
g2
Ntp1891
Rp1892
(dp1893
g11
I00
sg19
I01
sg37
S'SiStripLorentzAngleRcd'
p1894
sg20
I00
sbsg38
(lp1895
g833
ag1753
asbsg46
S'SiStripLorentzAngleDepESProducer'
p1896
sg1872
g0
(g28
g2
Ntp1897
Rp1898
(dp1899
g11
I00
sg19
I01
sg20
I00
sg1753
g0
(g164
g2
Ntp1900
Rp1901
(dp1902
g11
I00
sg19
I00
sg37
g1780
sg20
I00
sbsg833
g0
(g164
g2
Ntp1903
Rp1904
(dp1905
g11
I00
sg19
I01
sg37
g1894
sg20
I00
sbsg38
(lp1906
g833
ag1753
asbsbsI31897680
g0
(g253
g2
Ntp1907
Rp1908
(dp1909
g38
(lp1910
sg11
I00
sg20
I00
sg40
I40
sg69
g259
sg271
S'ZdcHardcodeGeometryEP'
p1911
sg46
g1911
sbsI31897744
g1143
sI32049424
g1082
sI31898064
g0
(g253
g2
Ntp1912
Rp1913
(dp1914
g38
(lp1915
S'MapFile'
p1916
asg11
I00
sg20
I00
sg1916
g0
(g164
g2
Ntp1917
Rp1918
(dp1919
g11
I00
sg19
I00
sg37
S'Geometry/EcalMapping/data/EndCap_TTMap.txt'
p1920
sg20
I00
sbsg69
g259
sg40
I40
sg271
S'EcalTrigTowerConstituentsMapBuilder'
p1921
sg46
g1921
sbsI31895632
g0
(g253
g2
Ntp1922
Rp1923
(dp1924
g38
(lp1925
g1179
asg11
I00
sg1179
g1181
sg20
I00
sg40
I40
sg69
g259
sg271
S'HcalHardcodeGeometryEP'
p1926
sg46
g1926
sbsI29973008
g1148
sI29973136
g984
sI31898448
g0
(g253
g2
Ntp1927
Rp1928
(dp1929
g38
(lp1930
sg11
I00
sg20
I00
sg40
I40
sg69
g259
sg271
S'EcalElectronicsMappingBuilder'
p1931
sg46
g1931
sbsI30018512
g0
(g253
g2
Ntp1932
Rp1933
(dp1934
g38
(lp1935
g419
ag420
ag928
ag924
asg11
I00
sg419
g0
(g164
g2
Ntp1936
Rp1937
(dp1938
g11
I00
sg19
I01
sg37
g317
sg20
I00
sbsg20
I00
sg924
g0
(g164
g2
Ntp1939
Rp1940
(dp1941
g11
I00
sg19
I01
sg37
g317
sg20
I00
sbsg69
g259
sg40
I40
sg271
g1687
sg420
g0
(g33
g2
Ntp1942
Rp1943
(dp1944
g11
I00
sg19
I01
sg37
I01
sg20
I00
sbsg928
g0
(g33
g2
Ntp1945
Rp1946
(dp1947
g11
I00
sg19
I01
sg37
I01
sg20
I00
sbsg46
g1687
sbsI29969680
g416
sI31898704
g1060
sI30026576
g1660
sI29936848
g366
sI32048848
g1669
sI29968208
g807
sI29937040
g1586
sI30017680
g0
(g253
g2
Ntp1948
Rp1949
(dp1950
g38
(lp1951
g921
aS'compatibiltyWith11'
p1952
asg11
I00
sg20
I00
sg40
I40
sg69
g259
sg921
g0
(g33
g2
Ntp1953
Rp1954
(dp1955
g11
I00
sg19
I00
sg37
I01
sg20
I00
sbsg1952
g0
(g33
g2
Ntp1956
Rp1957
(dp1958
g11
I00
sg19
I00
sg37
I01
sg20
I00
sbsg271
S'RPCGeometryESModule'
p1959
sg46
g1959
sbsI32050704
g0
(g253
g2
Ntp1960
Rp1961
(dp1962
g38
(lp1963
g928
asg11
I00
sg20
I00
sg40
I40
sg69
g259
sg271
S'EcalPreshowerGeometryEP'
p1964
sg928
g0
(g33
g2
Ntp1965
Rp1966
(dp1967
g11
I00
sg19
I01
sg37
I00
sg20
I00
sbsg46
g1964
sbsI31932496
g275
sI30027408
g1706
sI32047312
g0
(g253
g2
Ntp1968
Rp1969
(dp1970
g38
(lp1971
g419
asg11
I00
sg419
g0
(g164
g2
Ntp1972
Rp1973
(dp1974
g11
I00
sg19
I01
sg37
g1679
sg20
I01
sbsg20
I01
sg40
I5
sg69
S'/cvmfs/cms.cern.ch/slc6_amd64_gcc491/cms/cmssw/CMSSW_7_4_2/python/Alignment/CommonAlignmentProducer/fakeForIdealAlignmentProducer_cfi.py'
p1975
sg271
S'fakeForIdealAlignment'
p1976
sg46
S'FakeAlignmentProducer'
p1977
sbsI32050960
g0
(g253
g2
Ntp1978
Rp1979
(dp1980
g38
(lp1981
g928
asg11
I00
sg20
I00
sg40
I40
sg69
g259
sg271
S'EcalBarrelGeometryEP'
p1982
sg928
g0
(g33
g2
Ntp1983
Rp1984
(dp1985
g11
I00
sg19
I01
sg37
I00
sg20
I00
sbsg46
g1982
sbsI30026704
g0
(g253
g2
Ntp1986
Rp1987
(dp1988
g38
(lp1989
g419
ag420
ag1090
ag928
ag924
asg11
I00
sg419
g0
(g164
g2
Ntp1990
Rp1991
(dp1992
g11
I00
sg19
I01
sg37
g1675
sg20
I01
sbsg1090
g0
(g28
g2
Ntp1993
Rp1994
(dp1995
g11
I00
sg19
I01
sg1097
g0
(g103
g2
Ntp1996
Rp1997
(dp1998
g11
I00
sg19
I01
sg37
I0
sg20
I00
sbsg1101
g0
(g103
g2
Ntp1999
Rp2000
(dp2001
g11
I00
sg19
I01
sg37
I0
sg20
I00
sbsg1105
g0
(g33
g2
Ntp2002
Rp2003
(dp2004
g11
I00
sg19
I01
sg37
I00
sg20
I00
sbsg1109
g0
(g103
g2
Ntp2005
Rp2006
(dp2007
g11
I00
sg19
I01
sg37
I2
sg20
I00
sbsg1113
g0
(g103
g2
Ntp2008
Rp2009
(dp2010
g11
I00
sg19
I01
sg37
I1
sg20
I00
sbsg1117
g0
(g103
g2
Ntp2011
Rp2012
(dp2013
g11
I00
sg19
I01
sg37
I80
sg20
I00
sbsg38
(lp2014
g1097
ag1101
ag1105
ag1109
ag1113
ag1117
ag1122
asg1122
g0
(g103
g2
Ntp2015
Rp2016
(dp2017
g11
I00
sg19
I01
sg37
I52
sg20
I00
sbsg20
I00
sbsg20
I01
sg924
g0
(g164
g2
Ntp2018
Rp2019
(dp2020
g11
I00
sg19
I01
sg37
g1679
sg20
I01
sbsg69
S'/cvmfs/cms.cern.ch/slc6_amd64_gcc491/cms/cmssw/CMSSW_7_4_2/python/Geometry/TrackerGeometryBuilder/idealForDigiTrackerGeometry_cff.py'
p2021
sg40
I8
sg271
S'idealForDigiTrackerGeometry'
p2022
sg420
g0
(g33
g2
Ntp2023
Rp2024
(dp2025
g11
I00
sg19
I01
sg37
I01
sg20
I00
sbsg928
g0
(g33
g2
Ntp2026
Rp2027
(dp2028
g11
I00
sg19
I01
sg37
I00
sg20
I01
sbsg46
g1135
sbsI31899472
g286
sI29974416
g0
(g253
g2
Ntp2029
Rp2030
(dp2031
g38
(lp2032
S'PreFilter'
p2033
ag988
aS'NSigmaInside'
p2034
asg11
I00
sg20
I00
sg69
g259
sg988
g0
(g164
g2
Ntp2035
Rp2036
(dp2037
g11
I00
sg19
I01
sg37
S'StandardMatcher'
p2038
sg20
I00
sbsg2033
g0
(g33
g2
Ntp2039
Rp2040
(dp2041
g11
I00
sg19
I01
sg37
I00
sg20
I00
sbsg40
I40
sg2034
g0
(g818
g2
Ntp2042
Rp2043
(dp2044
g11
I00
sg19
I01
sg37
F3.0
sg20
I00
sbsg271
S'SiStripRecHitMatcherESProducer'
p2045
sg46
g2045
sbsI32049808
g255
sI29966416
g0
(g253
g2
Ntp2046
Rp2047
(dp2048
g38
(lp2049
sg11
I00
sg20
I00
sg40
I40
sg69
g259
sg271
S'sistripconn'
p2050
sg46
S'SiStripConnectivity'
p2051
sbsI31895760
g958
sI30036240
g1138
sI30026000
g0
(g253
g2
Ntp2052
Rp2053
(dp2054
g11
I00
sg40
I40
sS'tib_str_int_extStartBit'
p2055
g0
(g472
g2
Ntp2056
Rp2057
(dp2058
g11
I00
sg19
I01
sg37
I10
sg20
I00
sbsS'tib_layerMask'
p2059
g0
(g472
g2
Ntp2060
Rp2061
(dp2062
g11
I00
sg19
I01
sg37
I7
sg20
I00
sbsS'tib_str_fw_bwStartBit'
p2063
g0
(g472
g2
Ntp2064
Rp2065
(dp2066
g11
I00
sg19
I01
sg37
I12
sg20
I00
sbsS'pxf_bladeMask'
p2067
g0
(g472
g2
Ntp2068
Rp2069
(dp2070
g11
I00
sg19
I01
sg37
I63
sg20
I00
sbsS'pxb_moduleStartBit'
p2071
g0
(g472
g2
Ntp2072
Rp2073
(dp2074
g11
I00
sg19
I01
sg37
I2
sg20
I00
sbsS'pxb_ladderStartBit'
p2075
g0
(g472
g2
Ntp2076
Rp2077
(dp2078
g11
I00
sg19
I01
sg37
I8
sg20
I00
sbsS'pxb_layerStartBit'
p2079
g0
(g472
g2
Ntp2080
Rp2081
(dp2082
g11
I00
sg19
I01
sg37
I16
sg20
I00
sbsS'pxb_layerMask'
p2083
g0
(g472
g2
Ntp2084
Rp2085
(dp2086
g11
I00
sg19
I01
sg37
I15
sg20
I00
sbsS'tec_wheelStartBit'
p2087
g0
(g472
g2
Ntp2088
Rp2089
(dp2090
g11
I00
sg19
I01
sg37
I14
sg20
I00
sbsS'tib_str_fw_bwMask'
p2091
g0
(g472
g2
Ntp2092
Rp2093
(dp2094
g11
I00
sg19
I01
sg37
I3
sg20
I00
sbsS'tec_ringStartBit'
p2095
g0
(g472
g2
Ntp2096
Rp2097
(dp2098
g11
I00
sg19
I01
sg37
I5
sg20
I00
sbsg46
S'TrackerTopologyEP'
p2099
sS'tib_moduleStartBit'
p2100
g0
(g472
g2
Ntp2101
Rp2102
(dp2103
g11
I00
sg19
I01
sg37
I2
sg20
I00
sbsg38
(lp2104
S'tob_rodStartBit'
p2105
ag2055
ag2059
ag2067
ag419
ag2075
ag2079
ag2087
aS'tib_str_int_extMask'
p2106
ag2095
ag2100
aS'tib_sterMask'
p2107
aS'tid_sideStartBit'
p2108
aS'tid_module_fw_bwStartBit'
p2109
aS'tid_ringMask'
p2110
aS'tob_sterMask'
p2111
aS'tec_petal_fw_bwStartBit'
p2112
aS'tec_ringMask'
p2113
aS'tib_strMask'
p2114
aS'tec_sterMask'
p2115
aS'tec_wheelMask'
p2116
aS'tec_sideStartBit'
p2117
aS'pxb_moduleMask'
p2118
aS'pxf_panelStartBit'
p2119
aS'tid_sideMask'
p2120
aS'tob_moduleMask'
p2121
aS'tid_ringStartBit'
p2122
aS'pxf_sideMask'
p2123
ag2071
aS'pxf_diskStartBit'
p2124
ag2091
aS'tec_moduleMask'
p2125
aS'tid_sterMask'
p2126
aS'tob_rod_fw_bwMask'
p2127
aS'tob_layerStartBit'
p2128
aS'tec_petal_fw_bwMask'
p2129
aS'tib_strStartBit'
p2130
aS'tec_sterStartBit'
p2131
aS'tid_moduleMask'
p2132
aS'tib_sterStartBit'
p2133
aS'tid_sterStartBit'
p2134
aS'pxf_moduleStartBit'
p2135
aS'pxf_diskMask'
p2136
aS'tob_moduleStartBit'
p2137
aS'tid_wheelStartBit'
p2138
aS'tob_layerMask'
p2139
aS'tid_module_fw_bwMask'
p2140
aS'tob_rod_fw_bwStartBit'
p2141
aS'tec_petalMask'
p2142
aS'pxb_ladderMask'
p2143
aS'tec_moduleStartBit'
p2144
aS'tob_rodMask'
p2145
aS'tec_sideMask'
p2146
aS'pxf_sideStartBit'
p2147
ag2083
aS'tib_layerStartBit'
p2148
aS'pxf_panelMask'
p2149
aS'tib_moduleMask'
p2150
aS'pxf_bladeStartBit'
p2151
aS'tid_wheelMask'
p2152
aS'tob_sterStartBit'
p2153
aS'tid_moduleStartBit'
p2154
aS'tec_petalStartBit'
p2155
ag2063
aS'pxf_moduleMask'
p2156
asg2108
g0
(g472
g2
Ntp2157
Rp2158
(dp2159
g11
I00
sg19
I01
sg37
I13
sg20
I00
sbsg2138
g0
(g472
g2
Ntp2160
Rp2161
(dp2162
g11
I00
sg19
I01
sg37
I11
sg20
I00
sbsg2110
g0
(g472
g2
Ntp2163
Rp2164
(dp2165
g11
I00
sg19
I01
sg37
I3
sg20
I00
sbsg2123
g0
(g472
g2
Ntp2166
Rp2167
(dp2168
g11
I00
sg19
I01
sg37
I3
sg20
I00
sbsg2112
g0
(g472
g2
Ntp2169
Rp2170
(dp2171
g11
I00
sg19
I01
sg37
I12
sg20
I00
sbsg2113
g0
(g472
g2
Ntp2172
Rp2173
(dp2174
g11
I00
sg19
I01
sg37
I7
sg20
I00
sbsg2114
g0
(g472
g2
Ntp2175
Rp2176
(dp2177
g11
I00
sg19
I01
sg37
I63
sg20
I00
sbsg2115
g0
(g472
g2
Ntp2178
Rp2179
(dp2180
g11
I00
sg19
I01
sg37
I3
sg20
I00
sbsg2117
g0
(g472
g2
Ntp2181
Rp2182
(dp2183
g11
I00
sg19
I01
sg37
I18
sg20
I00
sbsg2118
g0
(g472
g2
Ntp2184
Rp2185
(dp2186
g11
I00
sg19
I01
sg37
I63
sg20
I00
sbsg2126
g0
(g472
g2
Ntp2187
Rp2188
(dp2189
g11
I00
sg19
I01
sg37
I3
sg20
I00
sbsg2119
g0
(g472
g2
Ntp2190
Rp2191
(dp2192
g11
I00
sg19
I01
sg37
I8
sg20
I00
sbsg2120
g0
(g472
g2
Ntp2193
Rp2194
(dp2195
g11
I00
sg19
I01
sg37
I3
sg20
I00
sbsg2121
g0
(g472
g2
Ntp2196
Rp2197
(dp2198
g11
I00
sg19
I01
sg37
I7
sg20
I00
sbsg2122
g0
(g472
g2
Ntp2199
Rp2200
(dp2201
g11
I00
sg19
I01
sg37
I9
sg20
I00
sbsg2107
g0
(g472
g2
Ntp2202
Rp2203
(dp2204
g11
I00
sg19
I01
sg37
I3
sg20
I00
sbsg419
g0
(g164
g2
Ntp2205
Rp2206
(dp2207
g11
I00
sg19
I01
sg37
g317
sg20
I00
sbsg2124
g0
(g472
g2
Ntp2208
Rp2209
(dp2210
g11
I00
sg19
I01
sg37
I16
sg20
I00
sbsg2106
g0
(g472
g2
Ntp2211
Rp2212
(dp2213
g11
I00
sg19
I01
sg37
I3
sg20
I00
sbsg2125
g0
(g472
g2
Ntp2214
Rp2215
(dp2216
g11
I00
sg19
I01
sg37
I7
sg20
I00
sbsg2111
g0
(g472
g2
Ntp2217
Rp2218
(dp2219
g11
I00
sg19
I01
sg37
I3
sg20
I00
sbsg2127
g0
(g472
g2
Ntp2220
Rp2221
(dp2222
g11
I00
sg19
I01
sg37
I3
sg20
I00
sbsg2128
g0
(g472
g2
Ntp2223
Rp2224
(dp2225
g11
I00
sg19
I01
sg37
I14
sg20
I00
sbsg2129
g0
(g472
g2
Ntp2226
Rp2227
(dp2228
g11
I00
sg19
I01
sg37
I3
sg20
I00
sbsg2148
g0
(g472
g2
Ntp2229
Rp2230
(dp2231
g11
I00
sg19
I01
sg37
I14
sg20
I00
sbsg2131
g0
(g472
g2
Ntp2232
Rp2233
(dp2234
g11
I00
sg19
I01
sg37
I0
sg20
I00
sbsg2132
g0
(g472
g2
Ntp2235
Rp2236
(dp2237
g11
I00
sg19
I01
sg37
I31
sg20
I00
sbsg2133
g0
(g472
g2
Ntp2238
Rp2239
(dp2240
g11
I00
sg19
I01
sg37
I0
sg20
I00
sbsg69
g259
sg2134
g0
(g472
g2
Ntp2241
Rp2242
(dp2243
g11
I00
sg19
I01
sg37
I0
sg20
I00
sbsg2135
g0
(g472
g2
Ntp2244
Rp2245
(dp2246
g11
I00
sg19
I01
sg37
I2
sg20
I00
sbsg2136
g0
(g472
g2
Ntp2247
Rp2248
(dp2249
g11
I00
sg19
I01
sg37
I15
sg20
I00
sbsg2147
g0
(g472
g2
Ntp2250
Rp2251
(dp2252
g11
I00
sg19
I01
sg37
I23
sg20
I00
sbsg2109
g0
(g472
g2
Ntp2253
Rp2254
(dp2255
g11
I00
sg19
I01
sg37
I7
sg20
I00
sbsg2139
g0
(g472
g2
Ntp2256
Rp2257
(dp2258
g11
I00
sg19
I01
sg37
I7
sg20
I00
sbsg2140
g0
(g472
g2
Ntp2259
Rp2260
(dp2261
g11
I00
sg19
I01
sg37
I3
sg20
I00
sbsg2141
g0
(g472
g2
Ntp2262
Rp2263
(dp2264
g11
I00
sg19
I01
sg37
I12
sg20
I00
sbsg2142
g0
(g472
g2
Ntp2265
Rp2266
(dp2267
g11
I00
sg19
I01
sg37
I15
sg20
I00
sbsg2143
g0
(g472
g2
Ntp2268
Rp2269
(dp2270
g11
I00
sg19
I01
sg37
I255
sg20
I00
sbsg2144
g0
(g472
g2
Ntp2271
Rp2272
(dp2273
g11
I00
sg19
I01
sg37
I2
sg20
I00
sbsg20
I00
sg2145
g0
(g472
g2
Ntp2274
Rp2275
(dp2276
g11
I00
sg19
I01
sg37
I127
sg20
I00
sbsg2130
g0
(g472
g2
Ntp2277
Rp2278
(dp2279
g11
I00
sg19
I01
sg37
I4
sg20
I00
sbsg2116
g0
(g472
g2
Ntp2280
Rp2281
(dp2282
g11
I00
sg19
I01
sg37
I15
sg20
I00
sbsg2105
g0
(g472
g2
Ntp2283
Rp2284
(dp2285
g11
I00
sg19
I01
sg37
I5
sg20
I00
sbsg2149
g0
(g472
g2
Ntp2286
Rp2287
(dp2288
g11
I00
sg19
I01
sg37
I3
sg20
I00
sbsg2150
g0
(g472
g2
Ntp2289
Rp2290
(dp2291
g11
I00
sg19
I01
sg37
I3
sg20
I00
sbsg2151
g0
(g472
g2
Ntp2292
Rp2293
(dp2294
g11
I00
sg19
I01
sg37
I10
sg20
I00
sbsg2152
g0
(g472
g2
Ntp2295
Rp2296
(dp2297
g11
I00
sg19
I01
sg37
I3
sg20
I00
sbsg2153
g0
(g472
g2
Ntp2298
Rp2299
(dp2300
g11
I00
sg19
I01
sg37
I0
sg20
I00
sbsg2154
g0
(g472
g2
Ntp2301
Rp2302
(dp2303
g11
I00
sg19
I01
sg37
I2
sg20
I00
sbsg2155
g0
(g472
g2
Ntp2304
Rp2305
(dp2306
g11
I00
sg19
I01
sg37
I8
sg20
I00
sbsg2137
g0
(g472
g2
Ntp2307
Rp2308
(dp2309
g11
I00
sg19
I01
sg37
I2
sg20
I00
sbsg271
S'trackerTopologyConstants'
p2310
sg2156
g0
(g472
g2
Ntp2311
Rp2312
(dp2313
g11
I00
sg19
I01
sg37
I63
sg20
I00
sbsg2146
g0
(g472
g2
Ntp2314
Rp2315
(dp2316
g11
I00
sg19
I01
sg37
I3
sg20
I00
sbsbsI30036368
g0
(g253
g2
Ntp2317
Rp2318
(dp2319
g38
(lp2320
sg11
I00
sg20
I00
sg40
I40
sg69
g259
sg271
S'TrackerRecoGeometryESProducer'
p2321
sg46
g2321
sbsI29925840
g1165
sI29934032
g1647
sI29966864
g1655
sI29966992
g0
(g253
g2
Ntp2322
Rp2323
(dp2324
g38
(lp2325
g814
asg11
I00
sg20
I01
sg40
I40
sg69
g259
sg814
g0
(g828
g14
(lp2326
g0
(g28
g2
Ntp2327
Rp2328
(dp2329
g11
I00
sg19
I01
sg20
I00
sg833
g0
(g164
g2
Ntp2330
Rp2331
(dp2332
g11
I00
sg19
I01
sg37
S'SiPixelQualityFromDbRcd'
p2333
sg20
I00
sbsg838
g0
(g164
g2
Ntp2334
Rp2335
(dp2336
g11
I00
sg19
I01
sg37
g317
sg20
I00
sbsg38
(lp2337
g833
ag838
asbag0
(g28
g2
Ntp2338
Rp2339
(dp2340
g11
I00
sg19
I01
sg20
I00
sg833
g0
(g164
g2
Ntp2341
Rp2342
(dp2343
g11
I00
sg19
I01
sg37
S'SiPixelDetVOffRcd'
p2344
sg20
I00
sbsg838
g0
(g164
g2
Ntp2345
Rp2346
(dp2347
g11
I00
sg19
I01
sg37
g317
sg20
I00
sbsg38
(lp2348
g833
ag838
asbatp2349
Rp2350
(dp2351
g11
I00
sg19
I01
sg20
I00
sg21
I1
sbsg271
S'siPixelQualityESProducer'
p2352
sg46
S'SiPixelQualityESProducer'
p2353
sbsI29926160
g1215
ssg1866
g1816
sg1926
g1923
sg1959
g1949
sg2050
g2047
sS'_Process__esprefers'
p2354
(dp2355
g1696
g1699
ssg2045
g2030
sS'_Process__schedule'
p2356
NsS'_Process__partialschedules'
p2357
(dp2358
sg1230
g1232
sS'_Process__outputmodules'
p2359
(dp2360
sS'_Process__analyzers'
p2361
(dp2362
g336
g286
ssS'_Process__InExtendCall'
p2363
I00
sg1810
g1789
sg1931
g1928
sg1884
g1869
sS'_Process__modifiers'
p2364
(tsS'_Process__producers'
p2365
(dp2366
g1644
g1647
ssg1976
g1969
sg2352
g2323
sg1584
g1586
sS'_Process__filters'
p2367
(dp2368
sg1921
g1913
sS'_Process__looper'
p2369
Nsg2310
g2053
sg336
g286
sS'_Process__endpaths'
p2370
g0
(cFWCore.ParameterSet.DictTypes
SortedKeysDict
p2371
c__builtin__
dict
p2372
(dp2373
tp2374
Rp2375
(dp2376
S'list'
p2377
(lp2378
sbsS'_Process__esproducers'
p2379
(dp2380
g252
g255
sg1141
g1143
sg414
g416
sg1931
g1928
sg982
g984
sg1080
g1082
sg1136
g1138
sg2045
g2030
sg1653
g1655
sg916
g918
sg1911
g1908
sg1688
g1690
sg1921
g1913
sg1704
g1706
sg1742
g1744
sg1213
g1215
sg1866
g1816
sg1926
g1923
sg1959
g1949
sg2050
g2047
sg2310
g2053
sg1163
g1165
sg956
g958
sg805
g807
sg1667
g1669
sg1810
g1789
sg1884
g1869
sg1085
g1087
sg2352
g2323
sg1982
g1979
sg1146
g1148
sg1687
g1933
sg1658
g1660
sg1964
g1961
sg2321
g2318
sg1737
g1739
sg1976
g1969
sg2022
g1987
ssg1982
g1979
sg1687
g1933
sS'_Process__paths'
p2381
g0
(g2371
g2372
(dp2382
g272
g275
stp2383
Rp2384
(dp2385
g2377
(lp2386
g272
asbsg1964
g1961
sg2321
g2318
sS'_Process__subProcess'
p2387
Nsg1911
g1908
sg2022
g1987
sS'_Process__isStrict'
p2388
I00
sb.